(lp0
I0
aI8
aI0
aI5
aI2
aI0
aI0
aI0
aI0
aI0
aI1
aI0
aI1
aI1
aI3
aI1
aI1
aI1
aI0
aI0
aI0
aI1
aI0
aI0
aI0
aI0
aI0
aI0
aI0
aI1
aI0
aI1
aI0
aI0
aI0
aI2
aI0
aI1
aI0
aI0
aI1
aI1
aI0
aI1
aI0
aI0
aI0
aI0
aI0
aI0
aI2
aI2
aI1
aI2
aI1
aI2
aI0
aI2
aI0
aI3
aI2
aI2
aI0
aI1
aI0
aI0
aI0
aI0
aI0
aI0
aI0
aI0
aI0
aI0
aI1
aI0
aI1
aI4
aI0
aI1
aI0
aI3
aI0
aI0
aI0
aI0
aI0
aI1
aI2
aI0
aI0
aI0
aI0
aI0
aI0
aI0
aI1
aI4
aI3
aI2
aI0
aI0
aI1
aI1
aI1
aI0
aI1
aI0
aI2
aI1
aI3
aI0
aI1
aI0
aI1
aI4
aI1
aI0
aI2
aI1
aI2
aI2
aI0
aI1
aI0
aI1
aI1
aI2
aI0
aI0
aI1
aI0
aI0
aI0
aI0
aI0
aI1
aI0
aI0
aI0
aI1
aI0
aI2
aI0
aI0
aI1
aI5
aI1
aI0
aI2
aI2
aI1
aI1
aI1
aI1
aI1
aI1
aI2
aI2
aI0
aI2
aI0
aI0
aI1
aI0
aI0
aI0
aI1
aI1
aI1
aI3
aI0
aI0
aI2
aI1
aI2
aI0
aI0
aI0
aI0
aI0
aI0
aI0
aI1
aI0
aI1
aI0
aI2
aI0
aI0
aI0
aI3
aI1
aI1
aI2
aI2
aI3
aI1
aI4
aI0
aI1
aI6
aI1
aI0
aI0
aI0
aI0
aI1
aI1
aI1
aI0
aI1
aI3
aI0
aI0
aI0
aI0
aI1
aI0
aI1
aI1
aI0
aI1
aI0
aI2
aI0
aI0
aI0
aI0
aI0
aI0
aI1
aI1
aI0
aI0
aI0
aI1
aI1
a.