(lp0
S'/title/tt0369610/'
p1
aS'/title/tt2395427/'
p2
aS'/title/tt2096673/'
p3
aS'/title/tt2293640/'
p4
aS'/title/tt2381249/'
p5
aS'/title/tt2848292/'
p6
aS'/title/tt0478970/'
p7
aS'/title/tt1398426/'
p8
aS'/title/tt2126355/'
p9
aS'/title/tt1392190/'
p10
aS'/title/tt1340800/'
p11
aS'/title/tt3152624/'
p12
aS'/title/tt1964418/'
p13
aNaS'/title/tt2637276/'
p14
aS'/title/tt2120120/'
p15
aS'/title/tt2268016/'
p16
aS'/title/tt1524930/'
p17
aS'/title/tt3832914/'
p18
aS'/title/tt1502712/'
p19
aNaS'/title/tt1798684/'
p20
aNaS'/title/tt1638355/'
p21
aNaNaS'/title/tt2967224/'
p22
aS'/title/tt1674771/'
p23
aS'/title/tt3622592/'
p24
aS'/title/tt1178665/'
p25
aS'/title/tt2752772/'
p26
aS'/title/tt1781922/'
p27
aS'/title/tt3623726/'
p28
aS'/title/tt2309260/'
p29
aS'/title/tt2679042/'
p30
aS'/title/tt1243974/'
p31
aS'/title/tt2872750/'
p32
aS'/title/tt3168230/'
p33
aS'/title/tt3850214/'
p34
aS'/title/tt2938956/'
p35
aS'/title/tt3316948/'
p36
aS'/title/tt0903657/'
p37
aS'/title/tt2140379/'
p38
aS'/title/tt2935476/'
p39
aS'/title/tt4643580/'
p40
aS'/title/tt2870648/'
p41
aS'/title/tt3863552/'
p42
aS'/title/tt3819668/'
p43
aS'/title/tt3236120/'
p44
aS'/title/tt2582496/'
p45
aS'/title/tt2015381/'
p46
aS'/title/tt2109248/'
p47
aS'/title/tt1587310/'
p48
aS'/title/tt1877832/'
p49
aS'/title/tt2103281/'
p50
aS'/title/tt1872181/'
p51
aNaS'/title/tt2294449/'
p52
aNaS'/title/tt1646971/'
p53
aS'/title/tt2004420/'
p54
aS'/title/tt2872732/'
p55
aS'/title/tt2582846/'
p56
aS'/title/tt1631867/'
p57
aS'/title/tt2103254/'
p58
aS'/title/tt1924435/'
p59
aNaS'/title/tt2975578/'
p60
aS'/title/tt2239832/'
p61
aS'/title/tt2980706/'
p62
aS'/title/tt2980648/'
p63
aS'/title/tt1355630/'
p64
aS'/title/tt2106361/'
p65
aS'/title/tt1742044/'
p66
aS'/title/tt1086772/'
p67
aS'/title/tt0435651/'
p68
aS'/title/tt2557490/'
p69
aS'/title/tt2333784/'
p70
aS'/title/tt2183034/'
p71
aS'/title/tt1956620/'
p72
aS'/title/tt1647668/'
p73
aS'/title/tt2883512/'
p74
aS'/title/tt2473602/'
p75
aS'/title/tt2377322/'
p76
aS'/title/tt2247476/'
p77
aS'/title/tt1065073/'
p78
aS'/title/tt2402157/'
p79
aNaS'/title/tt1972571/'
p80
aS'/title/tt1980929/'
p81
aS'/title/tt2465146/'
p82
aS'/title/tt2626350/'
p83
aNaNaS'/title/tt2404181/'
p84
aS'/title/tt2870756/'
p85
aS'/title/tt3014666/'
p86
aS'/title/tt0884726/'
p87
aS'/title/tt3005242/'
p88
aS'/title/tt1706620/'
p89
aS'/title/tt1300854/'
p90
aS'/title/tt1690953/'
p91
aS'/title/tt0770828/'
p92
aS'/title/tt1453405/'
p93
aS'/title/tt1905041/'
p94
aS'/title/tt1408101/'
p95
aS'/title/tt0816711/'
p96
aS'/title/tt2404463/'
p97
aS'/title/tt1723121/'
p98
aNaS'/title/tt1457767/'
p99
aS'/title/tt2191701/'
p100
aS'/title/tt1430132/'
p101
aS'/title/tt1670345/'
p102
aS'/title/tt1327773/'
p103
aS'/title/tt1951261/'
p104
aS'/title/tt0799949/'
p105
aS'/title/tt1663662/'
p106
aS'/title/tt1245492/'
p107
aS'/title/tt1535108/'
p108
ag62
aS'/title/tt1210819/'
p109
aS'/title/tt1860353/'
p110
aS'/title/tt1272878/'
p111
aS'/title/tt2334879/'
p112
aS'/title/tt2017020/'
p113
aS'/title/tt1854564/'
p114
aS'/title/tt2184339/'
p115
aS'/title/tt1815862/'
p116
aS'/title/tt1821694/'
p117
aS'/title/tt2234155/'
p118
aS'/title/tt2378281/'
p119
aS'/title/tt0790736/'
p120
aS'/title/tt2334873/'
p121
aS'/title/tt2609912/'
p122
aS'/title/tt1538403/'
p123
aS'/title/tt2515086/'
p124
aS'/title/tt1650554/'
p125
aS'/title/tt1213663/'
p126
aNaS'/title/tt1853739/'
p127
aS'/jobs?ref=ft_jb'
p128
aS'/title/tt2334649/'
p129
aNaNaS'/title/tt2209418/'
p130
aS'/title/tt1413495/'
p131
aS'/title/tt1714206/'
p132
aS'/title/tt1462900/'
p133
aS'/title/tt2132285/'
p134
aNaS'/title/tt1345836/'
p135
ag51
aS'/title/tt0476964/'
p136
aNaS'/title/tt1277953/'
p137
aNaS'/title/tt1667889/'
p138
aS'/title/tt1735898/'
p139
aS'/title/tt1446714/'
p140
ag16
aS'/title/tt1194173/'
p141
aS'/title/tt1790886/'
p142
aS'/title/tt1764651/'
p143
aS'/title/tt1077368/'
p144
aNaS'/title/tt1440129/'
p145
aS'/title/tt1535438/'
p146
aS'/title/tt1645170/'
p147
aNaS'/title/tt1623288/'
p148
aS'/title/tt1462769/'
p149
aS'/title/tt0431021/'
p150
aS'/title/tt2023453/'
p151
aNaS'/title/tt1412386/'
p152
aS'/title/tt1748122/'
p153
aS'/title/tt1586265/'
p154
aS'/title/tt1336608/'
p155
aS'/title/tt1611224/'
p156
aS'/title/tt1212450/'
p157
aS'/title/tt1232200/'
p158
aS'/title/tt1298649/'
p159
aS'/title/tt1800741/'
p160
aNaS'/title/tt2215719/'
p161
aNaS'/title/tt1547234/'
p162
aS'/title/tt1991245/'
p163
aS'/title/tt1859650/'
p164
aS'/title/tt2097307/'
p165
aS'/title/tt2125435/'
p166
aS'/title/tt1716777/'
p167
aNaS'/title/tt1307068/'
p168
aS'/title/tt1566501/'
p169
aS'/title/tt1433822/'
p170
aS'/title/tt1862079/'
p171
aS'/title/tt2125608/'
p172
aNaNaS'/title/tt1399103/'
p173
ag104
aS'/title/tt1298650/'
p174
aS'/title/tt1216475/'
p175
aS'/news/ni59063838/?ref_=nb_nwt_3'
p176
aS'/title/tt1318514/'
p177
aS'/title/tt0458339/'
p178
aS'/title/tt1454029/'
p179
aS'/title/tt1478338/'
p180
aS'/title/tt1302011/'
p181
aS'/title/tt1270798/'
p182
ag113
aS'/title/tt1650062/'
p183
aS'/title/tt2170439/'
p184
aS'/title/tt1133985/'
p185
aS'/title/tt1284575/'
p186
aS'/title/tt0409847/'
p187
aS'/title/tt1570728/'
p188
aS'/title/tt1222817/'
p189
aS'/title/tt1396218/'
p190
aS'/title/tt1605783/'
p191
aS'/title/tt1632708/'
p192
aS'/title/tt1622979/'
p193
aS'/title/tt0491152/'
p194
aS'/title/tt1517489/'
p195
aS'/title/tt1640484/'
p196
aS'/title/tt1488555/'
p197
aS'/title/tt1622547/'
p198
aS'/title/tt1657507/'
p199
aS'/title/tt1583420/'
p200
aS'/title/tt1226753/'
p201
aS'/title/tt0822847/'
p202
aS'/title/tt1449283/'
p203
aS'/title/tt1637706/'
p204
aS'/title/tt1270761/'
p205
aS'/title/tt1067774/'
p206
aNaS'/title/tt1633356/'
p207
aNaS'/title/tt1772240/'
p208
aS'/title/tt1547230/'
p209
aS'/title/tt1563738/'
p210
aS'/title/tt0478304/'
p211
aNaS'/title/tt1668200/'
p212
aS'/title/tt1532503/'
p213
aS'/title/tt1540133/'
p214
aNaS'/title/tt1753549/'
p215
aS'/title/tt0435761/'
p216
aS'/title/tt1228705/'
p217
aS'/title/tt1325004/'
p218
aS'/title/tt1375666/'
p219
aS'/title/tt1323594/'
p220
aS'/title/tt0892791/'
p221
aS'/title/tt1155076/'
p222
ag100
aS'/title/tt0938283/'
p223
aS'/title/tt1386588/'
p224
aS'/title/tt0944835/'
p225
aS'/title/tt0955308/'
p226
ag70
aS'/title/tt1261945/'
p227
aS'/title/tt0473075/'
p228
aS'/title/tt0879870/'
p229
aS'/title/tt0429493/'
p230
aNaS'/title/tt0427152/'
p231
aS'/title/tt0963966/'
p232
aS'/title/tt1226229/'
p233
aS'/title/tt1135084/'
p234
aS'/title/tt0892318/'
p235
aS'/title/tt1424381/'
p236
aS'/title/tt1103153/'
p237
aS'/title/tt1287468/'
p238
aNaS'/title/tt2034139/'
p239
aS'/title/tt1666186/'
p240
aS'/title/tt1440728/'
p241
aS'/title/tt1392197/'
p242
aS'/title/tt0446029/'
p243
aS'/title/tt1438254/'
p244
aS'/title/tt1415283/'
p245
aS'/title/tt0889573/'
p246
aS'/title/tt2002718/'
p247
aS'/title/tt0493949/'
p248
aS'/title/tt0464154/'
p249
aS'/title/tt0979434/'
p250
aS'/title/tt1407061/'
p251
aS'/title/tt0842926/'
p252
aS'/title/tt1322312/'
p253
aS'/title/tt1017460/'
p254
aNaS'/title/tt1075747/'
p255
aS'/title/tt1194263/'
p256
aS'/title/tt1470023/'
p257
aS'/title/tt1216487/'
p258
aS'/title/tt1336617/'
p259
aS'/title/tt1020938/'
p260
aS'/title/tt1055369/'
p261
aS'/title/tt0417741/'
p262
aNag104
ag95
aS'/title/tt1080016/'
p263
aS'/title/tt0458525/'
p264
aS'/title/tt1078912/'
p265
aS'/title/tt1041829/'
p266
aS'/title/tt1046173/'
p267
aS'/title/tt0808151/'
p268
aS'/title/tt0438488/'
p269
aS'/title/tt0361748/'
p270
aS'/title/tt0436339/'
p271
aS'/title/tt1136608/'
p272
aS'/title/tt1152836/'
p273
aS'/title/tt1135503/'
p274
aS'/title/tt1142988/'
p275
aS'/title/tt1144884/'
p276
aS'/title/tt1111422/'
p277
aS'/title/tt0452694/'
p278
aNaS'/title/tt0821640/'
p279
aS'/title/tt1201167/'
p280
aS'/title/tt0457400/'
p281
aS'/title/tt1078588/'
p282
aS'/title/tt1045778/'
p283
aS'/title/tt1127180/'
p284
aS'/title/tt0464141/'
p285
aS'/title/tt0881891/'
p286
aNaNaS'/title/tt1153706/'
p287
aS'/title/tt0775552/'
p288
aS'/title/tt1100119/'
p289
aS'/title/tt1034032/'
p290
aS'/title/tt0887912/'
p291
aS'/title/tt0780567/'
p292
aS'/title/tt0971209/'
p293
aS'/title/tt1092633/'
p294
aS'/title/tt0876563/'
p295
aNaS'/title/tt1225822/'
p296
aS'/title/tt1097013/'
p297
aS'/title/tt1176740/'
p298
aS'/title/tt0865559/'
p299
aS'/title/tt0844479/'
p300
aS'/title/tt1127896/'
p301
aS'/title/tt1142433/'
p302
aS'/title/tt1178663/'
p303
ag135
ag217
aS'/title/tt0367882/'
p304
aS'/title/tt0448157/'
p305
aNag181
ag227
aS'/title/tt0795421/'
p306
aS'/title/tt0499448/'
p307
aS'/title/tt0800080/'
p308
ag80
aS'/title/tt0425061/'
p309
aS'/title/tt0942385/'
p310
aS'/title/tt0859163/'
p311
aS'/title/tt0373051/'
p312
aS'/title/tt0838283/'
p313
aS'/title/tt0960144/'
p314
aS'/title/tt0910936/'
p315
aS'/title/tt1033643/'
p316
aS'/title/tt0411477/'
p317
aS'/title/tt0949731/'
p318
aS'/title/tt0482606/'
p319
aS'/title/tt0852713/'
p320
aS'/title/tt0866439/'
p321
aS'/title/tt1018785/'
p322
aS'/title/tt0811080/'
p323
aS'/title/tt0452608/'
p324
aS'/title/tt1185834/'
p325
aS'/title/tt0811138/'
p326
aS'/title/tt0790686/'
p327
aS'/title/tt0482603/'
p328
aS'/title/tt0988047/'
p329
aS'/title/tt0497465/'
p330
aS'/title/tt0364970/'
p331
aNaS'/title/tt0846308/'
p332
aS'/title/tt1027862/'
p333
aS'/title/tt1213644/'
p334
aS'/title/tt0486321/'
p335
aS'/title/tt0765476/'
p336
aS'/title/tt1091751/'
p337
aS'/title/tt0412536/'
p338
aS'/title/tt1031969/'
p339
aS'/title/tt0362225/'
p340
aS'/title/tt0416044/'
p341
aS'/title/tt1104733/'
p342
aS'/title/tt0844671/'
p343
aS'/title/tt0914797/'
p344
aS'/title/tt0974554/'
p345
aS'/title/tt1155592/'
p346
aS'/title/tt0413300/'
p347
aS'/title/tt0413267/'
p348
ag47
aS'/title/tt0449088/'
p349
aS'/title/tt0373889/'
p350
aS'/title/tt0440963/'
p351
aS'/title/tt0382932/'
p352
aS'/title/tt0462538/'
p353
aS'/title/tt0478311/'
p354
aS'/title/tt0293564/'
p355
aS'/title/tt0337978/'
p356
aNaS'/title/tt0829482/'
p357
aNaNaS'/title/tt0496806/'
p358
aS'/title/tt0413099/'
p359
aS'/title/tt0450385/'
p360
aS'/title/tt0423294/'
p361
aNaS'/title/tt0762114/'
p362
aS'/title/tt0467110/'
p363
aS'/title/tt0481141/'
p364
aS'/title/tt0486655/'
p365
aS'/title/tt0453451/'
p366
aS'/title/tt0424823/'
p367
aS'/title/tt0463854/'
p368
aS'/title/tt0780571/'
p369
aS'/title/tt0489237/'
p370
aS'/title/tt0479500/'
p371
aS'/title/tt0386032/'
p372
aS'/awards-central/?ref_=nv_ev_awrd_1'
p373
aS'/title/tt0791304/'
p374
aS'/title/tt0416508/'
p375
aNaS'/title/tt0427392/'
p376
aS'/title/tt0787475/'
p377
aS'/title/tt0462244/'
p378
aS'/title/tt0765447/'
p379
aS'/title/tt0450188/'
p380
aS'/title/tt0804452/'
p381
aS'/title/tt0804461/'
p382
aS'/title/tt0907657/'
p383
aS'/title/tt0829459/'
p384
aNaS'/title/tt0800003/'
p385
aS'/title/tt0458522/'
p386
aS'/title/tt0897361/'
p387
aNaS'/title/tt0462396/'
p388
aS'/title/tt0383574/'
p389
ag175
aS'/title/tt0376994/'
p390
aS'/title/tt0382625/'
p391
aS'/title/tt0348150/'
p392
aNaS'/title/tt0415306/'
p393
aNaNaS'/title/tt0458352/'
p394
aS'/title/tt0452594/'
p395
aS'/title/tt0457510/'
p396
aS'/title/tt0463034/'
p397
aS'/title/tt0385880/'
p398
aNaS'/title/tt0469641/'
p399
ag83
aS'/title/tt0430357/'
p400
aS'/title/tt0463985/'
p401
aS'/title/tt0409182/'
p402
aNaNaS'/title/tt0445990/'
p403
aNaS'/title/tt0410297/'
p404
aS'/title/tt0452637/'
p405
aS'/title/tt0455967/'
p406
aNaS'/title/tt0384793/'
p407
aS'/title/tt0417148/'
p408
aS'/title/tt0455499/'
p409
aS'/title/tt0429589/'
p410
aS'/title/tt1121931/'
p411
aNaS'/title/tt0424345/'
p412
aNaS'/title/tt0450345/'
p413
aS'/title/tt0465624/'
p414
aNaNaS'/title/tt0454919/'
p415
aS'/title/tt0486551/'
p416
aS'/title/tt0397078/'
p417
aNaS'/title/tt0437179/'
p418
aS'/title/tt0462346/'
p419
aNaS'/title/tt0417225/'
p420
aS'/title/tt0383060/'
p421
aS'/title/tt0433412/'
p422
a.