(lp0
(lp1
S'1'
p2
aS'Jurassic World'
p3
aS'Uni.'
p4
aF650493056.0
aS'4,291'
p5
aF208806270.0
aS'4,274'
p6
aS'6/12'
p7
aS'-'
p8
aI2015
aa(lp9
S'2'
p10
aS'Avengers: Age of Ultron'
p11
aS'BV'
p12
aF458924272.0
aS'4,276'
p13
aF191271109.0
aS'4,276'
p14
aS'5/1'
p15
aS'-'
p16
aI2015
aa(lp17
S'3'
p18
aS'Inside Out'
p19
aS'BV'
p20
aF353554263.0
aS'4,158'
p21
aF90440272.0
aS'3,946'
p22
aS'6/19'
p23
aS'-'
p24
aI2015
aa(lp25
S'4'
p26
aS'Minions'
p27
aS'Uni.'
p28
aF333562515.0
aS'4,311'
p29
aF115718405.0
aS'4,301'
p30
aS'7/10'
p31
aS'-'
p32
aI2015
aa(lp33
S'5'
p34
aS'Mission: Impossible - Rogue Nation'
p35
aS'Par.'
p36
aF193635192.0
aS'3,988'
p37
aF55520089.0
aS'3,956'
p38
aS'7/31'
p39
aS'-'
p40
aI2015
aa(lp41
S'6'
p42
aS'Pitch Perfect 2'
p43
aS'Uni.'
p44
aF183785415.0
aS'3,660'
p45
aF69216890.0
aS'3,473'
p46
aS'5/15'
p47
aS'7/30'
p48
aI2015
aa(lp49
S'7'
p50
aS'Ant-Man'
p51
aS'BV'
p52
aF178298695.0
aS'3,868'
p53
aF57225526.0
aS'3,856'
p54
aS'7/17'
p55
aS'-'
p56
aI2015
aa(lp57
S'8'
p58
aS'Straight Outta Compton'
p59
aS'Uni.'
p60
aF160330885.0
aS'3,142'
p61
aF60200180.0
aS'2,757'
p62
aS'8/14'
p63
aS'-'
p64
aI2015
aa(lp65
S'9'
p66
aS'San Andreas'
p67
aS'WB'
p68
aF155096918.0
aS'3,812'
p69
aF54588173.0
aS'3,777'
p70
aS'5/29'
p71
aS'-'
p72
aI2015
aa(lp73
S'10'
p74
aS'Mad Max: Fury Road'
p75
aS'WB'
p76
aF153636354.0
aS'3,722'
p77
aF45428128.0
aS'3,702'
p78
aS'5/15'
p79
aS'-'
p80
aI2015
aa(lp81
S'11'
p82
aS'Spy'
p83
aS'Fox'
p84
aF110806021.0
aS'3,715'
p85
aF29085719.0
aS'3,711'
p86
aS'6/5'
p87
aS'-'
p88
aI2015
aa(lp89
S'12'
p90
aS'Trainwreck'
p91
aS'Uni.'
p92
aF109804430.0
aS'3,171'
p93
aF30097040.0
aS'3,158'
p94
aS'7/17'
p95
aS'-'
p96
aI2015
aa(lp97
S'13'
p98
aS'Tomorrowland'
p99
aS'BV'
p100
aF93436322.0
aS'3,972'
p101
aF33028165.0
aS'3,972'
p102
aS'5/22'
p103
aS'9/17'
p104
aI2015
aa(lp105
S'14'
p106
aS'Terminator: Genisys'
p107
aS'Par.'
p108
aF89760956.0
aS'3,783'
p109
aF27018486.0
aS'3,758'
p110
aS'7/1'
p111
aS'9/17'
p112
aI2015
aa(lp113
S'15'
p114
aS'Ted 2'
p115
aS'Uni.'
p116
aF81284830.0
aS'3,448'
p117
aF33507870.0
aS'3,442'
p118
aS'6/26'
p119
aS'8/27'
p120
aI2015
aa(lp121
S'16'
p122
aS'Pixels'
p123
aS'Sony'
p124
aF77294255.0
aS'3,723'
p125
aF24011616.0
aS'3,723'
p126
aS'7/24'
p127
aS'-'
p128
aI2015
aa(lp129
S'17'
p130
aS'Magic Mike XXL'
p131
aS'WB'
p132
aF66013057.0
aS'3,376'
p133
aF12857184.0
aS'3,355'
p134
aS'7/1'
p135
aS'-'
p136
aI2015
aa(lp137
S'18'
p138
aS'Vacation'
p139
aS'WB (NL)'
p140
aF58538479.0
aS'3,430'
p141
aF14681108.0
aS'3,411'
p142
aS'7/29'
p143
aS'-'
p144
aI2015
aa(lp145
S'19'
p146
aS'War Room'
p147
aS'TriS'
p148
aF56936486.0
aS'1,945'
p149
aF11351389.0
aS'1,135'
p150
aS'8/28'
p151
aS'-'
p152
aI2015
aa(lp153
S'20'
p154
aS'Fantastic Four'
p155
aS'Fox'
p156
aF55937918.0
aS'4,004'
p157
aF25685737.0
aS'3,995'
p158
aS'8/7'
p159
aS'-'
p160
aI2015
aa(lp161
S'21'
p162
aS'Insidious Chapter 3'
p163
aS'Focus'
p164
aF52218558.0
aS'3,014'
p165
aF22692741.0
aS'3,002'
p166
aS'6/5'
p167
aS'-'
p168
aI2015
aa(lp169
S'22'
p170
aS'Southpaw'
p171
aS'Wein.'
p172
aF52179008.0
aS'2,772'
p173
aF16701294.0
aS'2,772'
p174
aS'7/24'
p175
aS'-'
p176
aI2015
aa(lp177
S'23'
p178
aS'Poltergeist (2015)'
p179
aS'Fox'
p180
aF47425125.0
aS'3,242'
p181
aF22620386.0
aS'3,240'
p182
aS'5/22'
p183
aS'8/6'
p184
aI2015
aa(lp185
S'24'
p186
aS'The Man From U.N.C.L.E.'
p187
aS'WB'
p188
aF45091270.0
aS'3,673'
p189
aF13421036.0
aS'3,638'
p190
aS'8/14'
p191
aS'-'
p192
aI2015
aa(lp193
S'25'
p194
aS'The Gift (2015)'
p195
aS'STX'
p196
aF43708074.0
aS'2,503'
p197
aF11854273.0
aS'2,503'
p198
aS'8/7'
p199
aS'-'
p200
aI2015
aa(lp201
S'26'
p202
aS'Max (2015)'
p203
aS'WB'
p204
aF42590306.0
aS'2,870'
p205
aF12155254.0
aS'2,855'
p206
aS'6/26'
p207
aS'-'
p208
aI2015
aa(lp209
S'27'
p210
aS'Hot Pursuit'
p211
aS'WB'
p212
aF34580201.0
aS'3,037'
p213
aF13942258.0
aS'3,003'
p214
aS'5/8'
p215
aS'7/30'
p216
aI2015
aa(lp217
S'28'
p218
aS'Entourage'
p219
aS'WB'
p220
aF32363404.0
aS'3,108'
p221
aF10283250.0
aS'3,108'
p222
aS'6/3'
p223
aS'8/13'
p224
aI2015
aa(lp225
S'29'
p226
aS'Paper Towns'
p227
aS'Fox'
p228
aF31947761.0
aS'3,031'
p229
aF12650140.0
aS'3,031'
p230
aS'7/24'
p231
aS'-'
p232
aI2015
aa(lp233
S'30'
p234
aS'A Walk in the Woods'
p235
aS'BG'
p236
aF27667638.0
aS'2,158'
p237
aF8246267.0
aS'1,960'
p238
aS'9/2'
p239
aS'-'
p240
aI2015
aa(lp241
S'31'
p242
aS'Sinister 2'
p243
aS'Focus'
p244
aF27522249.0
aS'2,799'
p245
aF10542116.0
aS'2,766'
p246
aS'8/21'
p247
aS'-'
p248
aI2015
aa(lp249
S'32'
p250
aS'No Escape'
p251
aS'Wein.'
p252
aF26899257.0
aS'3,415'
p253
aF8111264.0
aS'3,355'
p254
aS'8/26'
p255
aS'-'
p256
aI2015
aa(lp257
S'33'
p258
aS'Ricki and the Flash'
p259
aS'TriS'
p260
aF26762929.0
aS'2,064'
p261
aF6610961.0
aS'1,603'
p262
aS'8/7'
p263
aS'-'
p264
aI2015
aa(lp265
S'34'
p266
aS'The Gallows'
p267
aS'WB (NL)'
p268
aF22764410.0
aS'2,720'
p269
aF9808463.0
aS'2,720'
p270
aS'7/10'
p271
aS'9/17'
p272
aI2015
aa(lp273
S'35'
p274
aS'Hitman: Agent 47'
p275
aS'Fox'
p276
aF22397786.0
aS'3,273'
p277
aF8326530.0
aS'3,261'
p278
aS'8/21'
p279
aS'-'
p280
aI2015
aa(lp281
S'36'
p282
aS'Aloha'
p283
aS'Sony'
p284
aF21067116.0
aS'2,815'
p285
aF9670235.0
aS'2,815'
p286
aS'5/29'
p287
aS'7/30'
p288
aI2015
aa(lp289
S'37'
p290
aS'Shaun the Sheep Movie'
p291
aS'LGF'
p292
aF19141666.0
aS'2,360'
p293
aF4038962.0
aS'2,320'
p294
aS'8/5'
p295
aS'-'
p296
aI2015
aa(lp297
S'38'
p298
aS'Mr. Holmes'
p299
aS'RAtt.'
p300
aF17623650.0
aS'898'
p301
aF2434908.0
aS'361'
p302
aS'7/17'
p303
aS'-'
p304
aI2015
aa(lp305
S'39'
p306
aS'Dope'
p307
aS'ORF'
p308
aF17506470.0
aS'2,002'
p309
aF6100010.0
aS'2,002'
p310
aS'6/19'
p311
aS'9/17'
p312
aI2015
aa(lp313
S'40'
p314
aS'The Transporter Refueled'
p315
aS'EC'
p316
aF15791541.0
aS'3,434'
p317
aF7355622.0
aS'3,434'
p318
aS'9/4'
p319
aS'-'
p320
aI2015
aa(lp321
S'41'
p322
aS'American Ultra'
p323
aS'LGF'
p324
aF14412224.0
aS'2,778'
p325
aF5454284.0
aS'2,778'
p326
aS'8/21'
p327
aS'-'
p328
aI2015
aa(lp329
S'42'
p330
aS'Love & Mercy'
p331
aS'RAtt.'
p332
aF12547189.0
aS'791'
p333
aF2122177.0
aS'481'
p334
aS'6/5'
p335
aS'-'
p336
aI2015
aa(lp337
S'43'
p338
aS'Self/Less'
p339
aS'Focus'
p340
aF12279691.0
aS'2,353'
p341
aF5403460.0
aS'2,353'
p342
aS'7/10'
p343
aS'8/27'
p344
aI2015
aa(lp345
S'44'
p346
aS'Far from the Madding Crowd'
p347
aS'FoxS'
p348
aF12236500.0
aS'902'
p349
aF164985.0
aS'10'
p350
aS'5/1'
p351
aS'8/13'
p352
aI2015
aa(lp353
S'45'
p354
aS'Un Gallo con Muchos Huevos'
p355
aS'LGF'
p356
aF8868423.0
aS'616'
p357
aF3424702.0
aS'395'
p358
aS'9/4'
p359
aS'-'
p360
aI2015
aa(lp361
S'46'
p362
aS'Amy'
p363
aS'A24'
p364
aF8283005.0
aS'435'
p365
aF222500.0
aS'6'
p366
aS'7/3'
p367
aS'-'
p368
aI2015
aa(lp369
S'47'
p370
aS'Bajrangi Bhaijaan'
p371
aS'Eros'
p372
aF8178001.0
aS'257'
p373
aF2621282.0
aS'257'
p374
aS'7/17'
p375
aS'-'
p376
aI2015
aa(lp377
S'48'
p378
aS"Dragon Ball Z: Resurrection 'F'"
p379
aS'FUN'
p380
aF8008363.0
aS'913'
p381
aF1817937.0
aS'183'
p382
aS'8/4'
p383
aS'-'
p384
aI2015
aa(lp385
S'49'
p386
aS"I'll See You In My Dreams"
p387
aS'BST'
p388
aF7449681.0
aS'290'
p389
aF52091.0
aS'3'
p390
aS'5/15'
p391
aS'-'
p392
aI2015
aa(lp393
S'50'
p394
aS'Me and Earl and the Dying Girl'
p395
aS'FoxS'
p396
aF6758416.0
aS'870'
p397
aF196496.0
aS'15'
p398
aS'6/12'
p399
aS'-'
p400
aI2015
aa(lp401
S'1'
p402
aS'Guardians of the Galaxy'
p403
aS'BV'
p404
aF333176600.0
aS'4,088'
p405
aF94320883.0
aS'4,080'
p406
aS'8/1'
p407
aS'1/22'
p408
aI2014
aa(lp409
S'2'
p410
aS'Transformers: Age of Extinction'
p411
aS'Par.'
p412
aF245439076.0
aS'4,233'
p413
aF100038390.0
aS'4,233'
p414
aS'6/27'
p415
aS'10/9'
p416
aI2014
aa(lp417
S'3'
p418
aS'Maleficent'
p419
aS'BV'
p420
aF241410378.0
aS'3,948'
p421
aF69431298.0
aS'3,948'
p422
aS'5/30'
p423
aS'12/4'
p424
aI2014
aa(lp425
S'4'
p426
aS'X-Men: Days of Future Past'
p427
aS'Fox'
p428
aF233921534.0
aS'4,001'
p429
aF90823660.0
aS'3,996'
p430
aS'5/23'
p431
aS'10/9'
p432
aI2014
aa(lp433
S'5'
p434
aS'Dawn of the Planet of the Apes'
p435
aS'Fox'
p436
aF208545589.0
aS'3,969'
p437
aF72611427.0
aS'3,967'
p438
aS'7/11'
p439
aS'12/4'
p440
aI2014
aa(lp441
S'6'
p442
aS'The Amazing Spider-Man 2'
p443
aS'Sony'
p444
aF202853933.0
aS'4,324'
p445
aF91608337.0
aS'4,324'
p446
aS'5/2'
p447
aS'8/17'
p448
aI2014
aa(lp449
S'7'
p450
aS'Godzilla (2014)'
p451
aS'WB'
p452
aF200676069.0
aS'3,952'
p453
aF93188384.0
aS'3,952'
p454
aS'5/16'
p455
aS'8/28'
p456
aI2014
aa(lp457
S'8'
p458
aS'22 Jump Street'
p459
aS'Sony'
p460
aF191719337.0
aS'3,426'
p461
aF57071445.0
aS'3,306'
p462
aS'6/13'
p463
aS'11/26'
p464
aI2014
aa(lp465
S'9'
p466
aS'Teenage Mutant Ninja Turtles (2014)'
p467
aS'Par.'
p468
aF191204754.0
aS'3,980'
p469
aF65575105.0
aS'3,845'
p470
aS'8/8'
p471
aS'11/20'
p472
aI2014
aa(lp473
S'10'
p474
aS'How to Train Your Dragon 2'
p475
aS'Fox'
p476
aF177002924.0
aS'4,268'
p477
aF49451322.0
aS'4,253'
p478
aS'6/13'
p479
aS'12/11'
p480
aI2014
aa(lp481
S'11'
p482
aS'Neighbors'
p483
aS'Uni.'
p484
aF150157400.0
aS'3,311'
p485
aF49033915.0
aS'3,279'
p486
aS'5/9'
p487
aS'8/21'
p488
aI2014
aa(lp489
S'12'
p490
aS'Lucy'
p491
aS'Uni.'
p492
aF126663600.0
aS'3,202'
p493
aF43899340.0
aS'3,173'
p494
aS'7/25'
p495
aS'11/6'
p496
aI2014
aa(lp497
S'13'
p498
aS'The Fault in our Stars'
p499
aS'Fox'
p500
aF124872350.0
aS'3,340'
p501
aF48002523.0
aS'3,173'
p502
aS'6/6'
p503
aS'10/9'
p504
aI2014
aa(lp505
S'14'
p506
aS'Edge of Tomorrow'
p507
aS'WB'
p508
aF100206256.0
aS'3,505'
p509
aF28760246.0
aS'3,490'
p510
aS'6/6'
p511
aS'9/11'
p512
aI2014
aa(lp513
S'15'
p514
aS'Tammy'
p515
aS'WB'
p516
aF84525432.0
aS'3,465'
p517
aF21577049.0
aS'3,465'
p518
aS'7/2'
p519
aS'10/16'
p520
aI2014
aa(lp521
S'16'
p522
aS"Let's Be Cops"
p523
aS'Fox'
p524
aF82390774.0
aS'3,140'
p525
aF17813722.0
aS'3,094'
p526
aS'8/13'
p527
aS'12/11'
p528
aI2014
aa(lp529
S'17'
p530
aS'Hercules (2014)'
p531
aS'Par.'
p532
aF72688614.0
aS'3,595'
p533
aF29800263.0
aS'3,595'
p534
aS'7/25'
p535
aS'10/16'
p536
aI2014
aa(lp537
S'18'
p538
aS'The Purge: Anarchy'
p539
aS'Uni.'
p540
aF71962800.0
aS'2,856'
p541
aF29816675.0
aS'2,805'
p542
aS'7/18'
p543
aS'9/18'
p544
aI2014
aa(lp545
S'19'
p546
aS'Think Like a Man Too'
p547
aS'SGem'
p548
aF65182182.0
aS'2,225'
p549
aF29241911.0
aS'2,225'
p550
aS'6/20'
p551
aS'8/17'
p552
aI2014
aa(lp553
S'20'
p554
aS'Planes: Fire & Rescue'
p555
aS'BV'
p556
aF59165787.0
aS'3,839'
p557
aF17509407.0
aS'3,826'
p558
aS'7/18'
p559
aS'11/13'
p560
aI2014
aa(lp561
S'21'
p562
aS'The Hundred-Foot Journey'
p563
aS'BV'
p564
aF54240821.0
aS'2,167'
p565
aF10979290.0
aS'2,023'
p566
aS'8/8'
p567
aS'12/4'
p568
aI2014
aa(lp569
S'22'
p570
aS'If I Stay'
p571
aS'WB'
p572
aF50474843.0
aS'3,157'
p573
aF15679190.0
aS'2,907'
p574
aS'8/22'
p575
aS'11/6'
p576
aI2014
aa(lp577
S'23'
p578
aS'Into The Storm'
p579
aS'WB'
p580
aF47602194.0
aS'3,434'
p581
aF17346427.0
aS'3,434'
p582
aS'8/8'
p583
aS'11/20'
p584
aI2014
aa(lp585
S'24'
p586
aS'Jersey Boys'
p587
aS'WB'
p588
aF47047013.0
aS'2,905'
p589
aF13319371.0
aS'2,905'
p590
aS'6/20'
p591
aS'9/25'
p592
aI2014
aa(lp593
S'25'
p594
aS'Blended'
p595
aS'WB'
p596
aF46294610.0
aS'3,555'
p597
aF14284031.0
aS'3,555'
p598
aS'5/23'
p599
aS'8/28'
p600
aI2014
aa(lp601
S'26'
p602
aS'The Giver'
p603
aS'Wein.'
p604
aF45090374.0
aS'3,003'
p605
aF12305016.0
aS'3,003'
p606
aS'8/15'
p607
aS'12/11'
p608
aI2014
aa(lp609
S'27'
p610
aS'A Million Ways to Die in the West'
p611
aS'Uni.'
p612
aF43139300.0
aS'3,160'
p613
aF16797385.0
aS'3,158'
p614
aS'5/30'
p615
aS'7/17'
p616
aI2014
aa(lp617
S'28'
p618
aS'The Expendables 3'
p619
aS'LGF'
p620
aF39322544.0
aS'3,221'
p621
aF15879645.0
aS'3,221'
p622
aS'8/15'
p623
aS'10/16'
p624
aI2014
aa(lp625
S'29'
p626
aS'Earth to Echo'
p627
aS'Rela.'
p628
aF38934842.0
aS'3,230'
p629
aF8364658.0
aS'3,230'
p630
aS'7/2'
p631
aS'10/30'
p632
aI2014
aa(lp633
S'30'
p634
aS'Sex Tape'
p635
aS'Sony'
p636
aF38543473.0
aS'3,062'
p637
aF14608152.0
aS'3,062'
p638
aS'7/18'
p639
aS'9/21'
p640
aI2014
aa(lp641
S'31'
p642
aS'Million Dollar Arm'
p643
aS'BV'
p644
aF36457627.0
aS'3,019'
p645
aF10515659.0
aS'3,019'
p646
aS'5/16'
p647
aS'8/21'
p648
aI2014
aa(lp649
S'32'
p650
aS'Chef'
p651
aS'ORF'
p652
aF31424003.0
aS'1,298'
p653
aF204961.0
aS'6'
p654
aS'5/9'
p655
aS'9/11'
p656
aI2014
aa(lp657
S'33'
p658
aS'Get On Up'
p659
aS'Uni.'
p660
aF30703100.0
aS'2,469'
p661
aF13585915.0
aS'2,468'
p662
aS'8/1'
p663
aS'9/18'
p664
aI2014
aa(lp665
S'34'
p666
aS'Deliver Us From Evil'
p667
aS'SGem'
p668
aF30577122.0
aS'3,049'
p669
aF9740471.0
aS'3,049'
p670
aS'7/2'
p671
aS'8/10'
p672
aI2014
aa(lp673
S'35'
p674
aS'When the Game Stands Tall'
p675
aS'TriS'
p676
aF30127963.0
aS'2,766'
p677
aF8381509.0
aS'2,673'
p678
aS'8/22'
p679
aS'11/2'
p680
aI2014
aa(lp681
S'36'
p682
aS'Boyhood'
p683
aS'IFC'
p684
aF25352281.0
aS'775'
p685
aF387618.0
aS'5'
p686
aS'7/11'
p687
aS'3/22'
p688
aI2014
aa(lp689
S'37'
p690
aS'The November Man'
p691
aS'Rela.'
p692
aF25018119.0
aS'2,776'
p693
aF7911597.0
aS'2,776'
p694
aS'8/27'
p695
aS'10/30'
p696
aI2014
aa(lp697
S'38'
p698
aS'As Above/So Below'
p699
aS'Uni.'
p700
aF21321100.0
aS'2,650'
p701
aF8632820.0
aS'2,640'
p702
aS'8/29'
p703
aS'10/9'
p704
aI2014
aa(lp705
S'39'
p706
aS'A Most Wanted Man'
p707
aS'RAtt.'
p708
aF17237855.0
aS'801'
p709
aF2687227.0
aS'361'
p710
aS'7/25'
p711
aS'11/13'
p712
aI2014
aa(lp713
S'40'
p714
aS'Begin Again'
p715
aS'Wein.'
p716
aF16170632.0
aS'1,302'
p717
aF134064.0
aS'5'
p718
aS'6/27'
p719
aS'10/16'
p720
aI2014
aa(lp721
S'41'
p722
aS'And So It Goes'
p723
aS'CE'
p724
aF15160801.0
aS'1,816'
p725
aF4642329.0
aS'1,762'
p726
aS'7/25'
p727
aS'10/2'
p728
aI2014
aa(lp729
S'42'
p730
aS'Step Up All In'
p731
aS'LG/S'
p732
aF14904384.0
aS'2,072'
p733
aF6469857.0
aS'2,072'
p734
aS'8/8'
p735
aS'10/2'
p736
aI2014
aa(lp737
S'43'
p738
aS'America (2014)'
p739
aS'LGF'
p740
aF14444502.0
aS'1,105'
p741
aF38608.0
aS'3'
p742
aS'6/27'
p743
aS'9/4'
p744
aI2014
aa(lp745
S'44'
p746
aS"Frank Miller's Sin City: A Dame to Kill For"
p747
aS'W/Dim.'
p748
aF13757804.0
aS'2,894'
p749
aF6317683.0
aS'2,894'
p750
aS'8/22'
p751
aS'10/9'
p752
aI2014
aa(lp753
S'45'
p754
aS'Belle'
p755
aS'FoxS'
p756
aF10726630.0
aS'525'
p757
aF106578.0
aS'4'
p758
aS'5/2'
p759
aS'8/28'
p760
aI2014
aa(lp761
S'46'
p762
aS'Magic in the Moonlight'
p763
aS'SPC'
p764
aF10539326.0
aS'964'
p765
aF412095.0
aS'17'
p766
aS'7/25'
p767
aS'11/20'
p768
aI2014
aa(lp769
S'47'
p770
aS"Moms' Night Out"
p771
aS'TriS'
p772
aF10429707.0
aS'1,046'
p773
aF4311083.0
aS'1,044'
p774
aS'5/9'
p775
aS'7/13'
p776
aI2014
aa(lp777
S'48'
p778
aS"Legends of Oz: Dorothy's Return"
p779
aS'CE'
p780
aF8462027.0
aS'2,658'
p781
aF3747780.0
aS'2,658'
p782
aS'5/9'
p783
aS'7/31'
p784
aI2014
aa(lp785
S'49'
p786
aS'Cantinflas'
p787
aS'LGF'
p788
aF6382924.0
aS'429'
p789
aF2661253.0
aS'382'
p790
aS'8/29'
p791
aS'10/16'
p792
aI2014
aa(lp793
S'50'
p794
aS'Snowpiercer'
p795
aS'RTWC'
p796
aF4563650.0
aS'356'
p797
aF171187.0
aS'8'
p798
aS'6/27'
p799
aS'10/23'
p800
aI2014
aa(lp801
S'1'
p802
aS'Iron Man 3'
p803
aS'BV'
p804
aF409013994.0
aS'4,253'
p805
aF174144585.0
aS'4,253'
p806
aS'5/3'
p807
aS'9/12'
p808
aI2013
aa(lp809
S'2'
p810
aS'Despicable Me 2'
p811
aS'Uni.'
p812
aF368061265.0
aS'4,003'
p813
aF83517315.0
aS'3,997'
p814
aS'7/3'
p815
aS'1/16'
p816
aI2013
aa(lp817
S'3'
p818
aS'Man of Steel'
p819
aS'WB'
p820
aF291045518.0
aS'4,207'
p821
aF116619362.0
aS'4,207'
p822
aS'6/14'
p823
aS'9/19'
p824
aI2013
aa(lp825
S'4'
p826
aS'Monsters University'
p827
aS'BV'
p828
aF268492764.0
aS'4,004'
p829
aF82429469.0
aS'4,004'
p830
aS'6/21'
p831
aS'12/19'
p832
aI2013
aa(lp833
S'5'
p834
aS'Fast & Furious 6'
p835
aS'Uni.'
p836
aF238679850.0
aS'3,771'
p837
aF97375245.0
aS'3,658'
p838
aS'5/24'
p839
aS'9/5'
p840
aI2013
aa(lp841
S'6'
p842
aS'Star Trek Into Darkness'
p843
aS'Par.'
p844
aF228778661.0
aS'3,907'
p845
aF70165559.0
aS'3,868'
p846
aS'5/16'
p847
aS'9/12'
p848
aI2013
aa(lp849
S'7'
p850
aS'World War Z'
p851
aS'Par.'
p852
aF202359711.0
aS'3,607'
p853
aF66411834.0
aS'3,607'
p854
aS'6/21'
p855
aS'10/10'
p856
aI2013
aa(lp857
S'8'
p858
aS'The Heat'
p859
aS'Fox'
p860
aF159582188.0
aS'3,184'
p861
aF39115043.0
aS'3,181'
p862
aS'6/28'
p863
aS'12/12'
p864
aI2013
aa(lp865
S'9'
p866
aS"We're the Millers"
p867
aS'WB'
p868
aF150394119.0
aS'3,445'
p869
aF26419396.0
aS'3,260'
p870
aS'8/7'
p871
aS'12/5'
p872
aI2013
aa(lp873
S'10'
p874
aS'The Great Gatsby (2013)'
p875
aS'WB'
p876
aF144840419.0
aS'3,550'
p877
aF50085185.0
aS'3,535'
p878
aS'5/10'
p879
aS'8/22'
p880
aI2013
aa(lp881
S'11'
p882
aS'The Conjuring'
p883
aS'WB'
p884
aF137400141.0
aS'3,115'
p885
aF41855326.0
aS'2,903'
p886
aS'7/19'
p887
aS'10/31'
p888
aI2013
aa(lp889
S'12'
p890
aS'Grown Ups 2'
p891
aS'Sony'
p892
aF133668525.0
aS'3,491'
p893
aF41508572.0
aS'3,491'
p894
aS'7/12'
p895
aS'11/17'
p896
aI2013
aa(lp897
S'13'
p898
aS'The Wolverine'
p899
aS'Fox'
p900
aF132556852.0
aS'3,924'
p901
aF53113752.0
aS'3,924'
p902
aS'7/26'
p903
aS'12/5'
p904
aI2013
aa(lp905
S'14'
p906
aS'Now You See Me'
p907
aS'LG/S'
p908
aF117723989.0
aS'3,082'
p909
aF29350389.0
aS'2,925'
p910
aS'5/31'
p911
aS'9/26'
p912
aI2013
aa(lp913
S'15'
p914
aS"Lee Daniels' The Butler"
p915
aS'Wein.'
p916
aF116632095.0
aS'3,330'
p917
aF24637312.0
aS'2,933'
p918
aS'8/16'
p919
aS'2/13'
p920
aI2013
aa(lp921
S'16'
p922
aS'The Hangover Part III'
p923
aS'WB'
p924
aF112200072.0
aS'3,565'
p925
aF41671198.0
aS'3,555'
p926
aS'5/23'
p927
aS'8/15'
p928
aI2013
aa(lp929
S'17'
p930
aS'Epic'
p931
aS'Fox'
p932
aF107518682.0
aS'3,894'
p933
aF33531068.0
aS'3,882'
p934
aS'5/24'
p935
aS'9/19'
p936
aI2013
aa(lp937
S'18'
p938
aS'Pacific Rim'
p939
aS'WB'
p940
aF101802906.0
aS'3,285'
p941
aF37285325.0
aS'3,275'
p942
aS'7/12'
p943
aS'10/17'
p944
aI2013
aa(lp945
S'19'
p946
aS'This is the End'
p947
aS'Sony'
p948
aF101470202.0
aS'3,055'
p949
aF20719162.0
aS'3,055'
p950
aS'6/12'
p951
aS'10/6'
p952
aI2013
aa(lp953
S'20'
p954
aS'Elysium'
p955
aS'TriS'
p956
aF93050117.0
aS'3,284'
p957
aF29807393.0
aS'3,284'
p958
aS'8/9'
p959
aS'11/24'
p960
aI2013
aa(lp961
S'21'
p962
aS'Planes'
p963
aS'BV'
p964
aF90288712.0
aS'3,716'
p965
aF22232291.0
aS'3,702'
p966
aS'8/9'
p967
aS'12/19'
p968
aI2013
aa(lp969
S'22'
p970
aS'The Lone Ranger'
p971
aS'BV'
p972
aF89302115.0
aS'3,904'
p973
aF29210849.0
aS'3,904'
p974
aS'7/3'
p975
aS'10/10'
p976
aI2013
aa(lp977
S'23'
p978
aS'Turbo'
p979
aS'Fox'
p980
aF83028128.0
aS'3,809'
p981
aF21312625.0
aS'3,806'
p982
aS'7/17'
p983
aS'12/12'
p984
aI2013
aa(lp985
S'24'
p986
aS'2 Guns'
p987
aS'Uni.'
p988
aF75612460.0
aS'3,028'
p989
aF27059130.0
aS'3,025'
p990
aS'8/2'
p991
aS'10/24'
p992
aI2013
aa(lp993
S'25'
p994
aS'White House Down'
p995
aS'Sony'
p996
aF73103784.0
aS'3,222'
p997
aF24852258.0
aS'3,222'
p998
aS'6/28'
p999
aS'9/15'
p1000
aI2013
aa(lp1001
S'26'
p1002
aS'The Smurfs 2'
p1003
aS'Sony'
p1004
aF71017784.0
aS'3,867'
p1005
aF17548389.0
aS'3,866'
p1006
aS'7/31'
p1007
aS'11/17'
p1008
aI2013
aa(lp1009
S'27'
p1010
aS'Percy Jackson: Sea of Monsters'
p1011
aS'Fox'
p1012
aF68559554.0
aS'3,080'
p1013
aF14401054.0
aS'3,031'
p1014
aS'8/7'
p1015
aS'1/30'
p1016
aI2013
aa(lp1017
S'28'
p1018
aS'The Purge'
p1019
aS'Uni.'
p1020
aF64473115.0
aS'2,591'
p1021
aF34058360.0
aS'2,536'
p1022
aS'6/7'
p1023
aS'8/8'
p1024
aI2013
aa(lp1025
S'29'
p1026
aS'After Earth'
p1027
aS'Sony'
p1028
aF60522097.0
aS'3,401'
p1029
aF27520040.0
aS'3,401'
p1030
aS'5/31'
p1031
aS'8/18'
p1032
aI2013
aa(lp1033
S'30'
p1034
aS'Red 2'
p1035
aS'LG/S'
p1036
aF53262560.0
aS'3,016'
p1037
aF18048422.0
aS'3,016'
p1038
aS'7/19'
p1039
aS'10/17'
p1040
aI2013
aa(lp1041
S'31'
p1042
aS'The Internship'
p1043
aS'Fox'
p1044
aF44672764.0
aS'3,399'
p1045
aF17325307.0
aS'3,366'
p1046
aS'6/7'
p1047
aS'9/12'
p1048
aI2013
aa(lp1049
S'32'
p1050
aS'Instructions Not Included'
p1051
aS'LGF'
p1052
aF44467206.0
aS'978'
p1053
aF7846426.0
aS'348'
p1054
aS'8/30'
p1055
aS'12/12'
p1056
aI2013
aa(lp1057
S'33'
p1058
aS'R.I.P.D.'
p1059
aS'Uni.'
p1060
aF33618855.0
aS'2,852'
p1061
aF12691415.0
aS'2,852'
p1062
aS'7/19'
p1063
aS'9/26'
p1064
aI2013
aa(lp1065
S'34'
p1066
aS'Blue Jasmine'
p1067
aS'SPC'
p1068
aF33405481.0
aS'1,283'
p1069
aF612064.0
aS'6'
p1070
aS'7/26'
p1071
aS'4/3'
p1072
aI2013
aa(lp1073
S'35'
p1074
aS'Kevin Hart: Let Me Explain'
p1075
aS'LG/S'
p1076
aF32244051.0
aS'892'
p1077
aF10030463.0
aS'876'
p1078
aS'7/3'
p1079
aS'8/22'
p1080
aI2013
aa(lp1081
S'36'
p1082
aS'The Mortal Instruments: City of Bones'
p1083
aS'SGem'
p1084
aF31165421.0
aS'3,118'
p1085
aF9336957.0
aS'3,118'
p1086
aS'8/21'
p1087
aS'10/6'
p1088
aI2013
aa(lp1089
S'37'
p1090
aS'One Direction: This is Us'
p1091
aS'TriS'
p1092
aF28873374.0
aS'2,735'
p1093
aF15815497.0
aS'2,735'
p1094
aS'8/30'
p1095
aS'10/6'
p1096
aI2013
aa(lp1097
S'38'
p1098
aS'Kick-Ass 2'
p1099
aS'Uni.'
p1100
aF28795985.0
aS'2,945'
p1101
aF13332955.0
aS'2,940'
p1102
aS'8/16'
p1103
aS'9/26'
p1104
aI2013
aa(lp1105
S'39'
p1106
aS"The World's End"
p1107
aS'Focus'
p1108
aF26004851.0
aS'1,553'
p1109
aF8811790.0
aS'1,551'
p1110
aS'8/23'
p1111
aS'12/5'
p1112
aI2013
aa(lp1113
S'40'
p1114
aS'The Way, Way Back'
p1115
aS'FoxS'
p1116
aF21506546.0
aS'1,001'
p1117
aF552788.0
aS'19'
p1118
aS'7/5'
p1119
aS'11/21'
p1120
aI2013
aa(lp1121
S'41'
p1122
aS"You're Next"
p1123
aS'LGF'
p1124
aF18494006.0
aS'2,437'
p1125
aF7020196.0
aS'2,437'
p1126
aS'8/23'
p1127
aS'10/17'
p1128
aI2013
aa(lp1129
S'42'
p1130
aS'Jobs'
p1131
aS'ORF'
p1132
aF16131410.0
aS'2,381'
p1133
aF6713900.0
aS'2,381'
p1134
aS'8/16'
p1135
aS'10/3'
p1136
aI2013
aa(lp1137
S'43'
p1138
aS'Fruitvale Station'
p1139
aS'Wein.'
p1140
aF16101339.0
aS'1,086'
p1141
aF386291.0
aS'7'
p1142
aS'7/12'
p1143
aS'10/31'
p1144
aI2013
aa(lp1145
S'44'
p1146
aS'Getaway (2013)'
p1147
aS'WB'
p1148
aF10501938.0
aS'2,135'
p1149
aF4503892.0
aS'2,130'
p1150
aS'8/30'
p1151
aS'10/3'
p1152
aI2013
aa(lp1153
S'45'
p1154
aS'Tyler Perry Presents Peeples'
p1155
aS'LGF'
p1156
aF9177065.0
aS'2,041'
p1157
aF4611534.0
aS'2,041'
p1158
aS'5/10'
p1159
aS'6/13'
p1160
aI2013
aa(lp1161
S'46'
p1162
aS'Before Midnight'
p1163
aS'SPC'
p1164
aF8114627.0
aS'897'
p1165
aF246914.0
aS'5'
p1166
aS'5/24'
p1167
aS'11/7'
p1168
aI2013
aa(lp1169
S'47'
p1170
aS'Paranoia'
p1171
aS'Rela.'
p1172
aF7385015.0
aS'2,459'
p1173
aF3528376.0
aS'2,459'
p1174
aS'8/16'
p1175
aS'10/3'
p1176
aI2013
aa(lp1177
S'48'
p1178
aS'The Spectacular Now'
p1179
aS'A24'
p1180
aF6854611.0
aS'770'
p1181
aF197415.0
aS'4'
p1182
aS'8/2'
p1183
aS'12/12'
p1184
aI2013
aa(lp1185
S'49'
p1186
aS'The Grandmaster'
p1187
aS'Wein.'
p1188
aF6594959.0
aS'804'
p1189
aF132617.0
aS'7'
p1190
aS'8/23'
p1191
aS'10/24'
p1192
aI2013
aa(lp1193
S'50'
p1194
aS'The Bling Ring'
p1195
aS'A24'
p1196
aF5845732.0
aS'650'
p1197
aF214395.0
aS'5'
p1198
aS'6/14'
p1199
aS'9/12'
p1200
aI2013
aa(lp1201
S'1'
p1202
aS"Marvel's The Avengers"
p1203
aS'BV'
p1204
aF623357910.0
aS'4,349'
p1205
aF207438708.0
aS'4,349'
p1206
aS'5/4'
p1207
aS'10/4'
p1208
aI2012
aa(lp1209
S'2'
p1210
aS'The Dark Knight Rises'
p1211
aS'WB'
p1212
aF448139099.0
aS'4,404'
p1213
aF160887295.0
aS'4,404'
p1214
aS'7/20'
p1215
aS'12/13'
p1216
aI2012
aa(lp1217
S'3'
p1218
aS'The Amazing Spider-Man'
p1219
aS'Sony'
p1220
aF262030663.0
aS'4,318'
p1221
aF62004688.0
aS'4,318'
p1222
aS'7/3'
p1223
aS'10/14'
p1224
aI2012
aa(lp1225
S'4'
p1226
aS'Brave'
p1227
aS'BV'
p1228
aF237283207.0
aS'4,164'
p1229
aF66323594.0
aS'4,164'
p1230
aS'6/22'
p1231
aS'1/17'
p1232
aI2012
aa(lp1233
S'5'
p1234
aS'Ted'
p1235
aS'Uni.'
p1236
aF218815487.0
aS'3,303'
p1237
aF54415205.0
aS'3,239'
p1238
aS'6/29'
p1239
aS'10/25'
p1240
aI2012
aa(lp1241
S'6'
p1242
aS"Madagascar 3: Europe's Most Wanted"
p1243
aS'P/DW'
p1244
aF216391482.0
aS'4,263'
p1245
aF60316738.0
aS'4,258'
p1246
aS'6/8'
p1247
aS'10/18'
p1248
aI2012
aa(lp1249
S'7'
p1250
aS'MIB 3'
p1251
aS'Sony'
p1252
aF179020854.0
aS'4,248'
p1253
aF54592779.0
aS'4,248'
p1254
aS'5/25'
p1255
aS'9/9'
p1256
aI2012
aa(lp1257
S'8'
p1258
aS'Ice Age: Continental Drift'
p1259
aS'Fox'
p1260
aF161321843.0
aS'3,886'
p1261
aF46629259.0
aS'3,881'
p1262
aS'7/13'
p1263
aS'2/7'
p1264
aI2012
aa(lp1265
S'9'
p1266
aS'Snow White and the Huntsman'
p1267
aS'Uni.'
p1268
aF155332381.0
aS'3,777'
p1269
aF56217700.0
aS'3,773'
p1270
aS'6/1'
p1271
aS'9/6'
p1272
aI2012
aa(lp1273
S'10'
p1274
aS'Prometheus'
p1275
aS'Fox'
p1276
aF126477084.0
aS'3,442'
p1277
aF51050101.0
aS'3,396'
p1278
aS'6/8'
p1279
aS'9/20'
p1280
aI2012
aa(lp1281
S'11'
p1282
aS'Magic Mike'
p1283
aS'WB'
p1284
aF113721571.0
aS'3,120'
p1285
aF39127170.0
aS'2,930'
p1286
aS'6/29'
p1287
aS'9/27'
p1288
aI2012
aa(lp1289
S'12'
p1290
aS'The Bourne Legacy'
p1291
aS'Uni.'
p1292
aF113203870.0
aS'3,753'
p1293
aF38142825.0
aS'3,745'
p1294
aS'8/10'
p1295
aS'11/8'
p1296
aI2012
aa(lp1297
S'13'
p1298
aS'The Campaign'
p1299
aS'WB'
p1300
aF86907746.0
aS'3,302'
p1301
aF26588460.0
aS'3,205'
p1302
aS'8/10'
p1303
aS'11/22'
p1304
aI2012
aa(lp1305
S'14'
p1306
aS'The Expendables 2'
p1307
aS'LGF'
p1308
aF85028192.0
aS'3,355'
p1309
aF28591370.0
aS'3,316'
p1310
aS'8/17'
p1311
aS'11/22'
p1312
aI2012
aa(lp1313
S'15'
p1314
aS'Dark Shadows'
p1315
aS'WB'
p1316
aF79727149.0
aS'3,755'
p1317
aF29685274.0
aS'3,755'
p1318
aS'5/11'
p1319
aS'8/16'
p1320
aI2012
aa(lp1321
S'16'
p1322
aS"Tyler Perry's Madea's Witness Protection"
p1323
aS'LGF'
p1324
aF65653242.0
aS'2,161'
p1325
aF25390575.0
aS'2,161'
p1326
aS'6/29'
p1327
aS'9/20'
p1328
aI2012
aa(lp1329
S'17'
p1330
aS'Battleship'
p1331
aS'Uni.'
p1332
aF65422625.0
aS'3,702'
p1333
aF25534825.0
aS'3,690'
p1334
aS'5/18'
p1335
aS'8/2'
p1336
aI2012
aa(lp1337
S'18'
p1338
aS'Hope Springs'
p1339
aS'Sony'
p1340
aF63536011.0
aS'2,441'
p1341
aF14650121.0
aS'2,361'
p1342
aS'8/8'
p1343
aS'10/21'
p1344
aI2012
aa(lp1345
S'19'
p1346
aS'The Dictator'
p1347
aS'Par.'
p1348
aF59650222.0
aS'3,014'
p1349
aF17435092.0
aS'3,008'
p1350
aS'5/16'
p1351
aS'7/26'
p1352
aI2012
aa(lp1353
S'20'
p1354
aS'Total Recall (2012)'
p1355
aS'Sony'
p1356
aF58877969.0
aS'3,601'
p1357
aF25577758.0
aS'3,601'
p1358
aS'8/3'
p1359
aS'10/7'
p1360
aI2012
aa(lp1361
S'21'
p1362
aS'ParaNorman'
p1363
aS'Focus'
p1364
aF56003051.0
aS'3,455'
p1365
aF14087050.0
aS'3,429'
p1366
aS'8/17'
p1367
aS'1/3'
p1368
aI2012
aa(lp1369
S'22'
p1370
aS'The Odd Life of Timothy Green'
p1371
aS'BV'
p1372
aF51854875.0
aS'2,717'
p1373
aF10822903.0
aS'2,598'
p1374
aS'8/15'
p1375
aS'1/17'
p1376
aI2012
aa(lp1377
S'23'
p1378
aS'The Possession'
p1379
aS'LGF'
p1380
aF49130154.0
aS'2,860'
p1381
aF17732480.0
aS'2,816'
p1382
aS'8/31'
p1383
aS'11/22'
p1384
aI2012
aa(lp1385
S'24'
p1386
aS'Diary of a Wimpy Kid: Dog Days'
p1387
aS'Fox'
p1388
aF49008662.0
aS'3,401'
p1389
aF14623599.0
aS'3,391'
p1390
aS'8/3'
p1391
aS'12/20'
p1392
aI2012
aa(lp1393
S'25'
p1394
aS'Savages (2012)'
p1395
aS'Uni.'
p1396
aF47382068.0
aS'2,635'
p1397
aF16016910.0
aS'2,628'
p1398
aS'7/6'
p1399
aS'9/6'
p1400
aI2012
aa(lp1401
S'26'
p1402
aS'The Best Exotic Marigold Hotel'
p1403
aS'FoxS'
p1404
aF46412041.0
aS'1,298'
p1405
aF737051.0
aS'27'
p1406
aS'5/4'
p1407
aS'10/25'
p1408
aI2012
aa(lp1409
S'27'
p1410
aS'Moonrise Kingdom'
p1411
aS'Focus'
p1412
aF45512466.0
aS'924'
p1413
aF522996.0
aS'4'
p1414
aS'5/25'
p1415
aS'11/1'
p1416
aI2012
aa(lp1417
S'28'
p1418
aS"What to Expect When You're Expecting"
p1419
aS'LGF'
p1420
aF41152203.0
aS'3,021'
p1421
aF10547068.0
aS'3,021'
p1422
aS'5/18'
p1423
aS'8/2'
p1424
aI2012
aa(lp1425
S'29'
p1426
aS'Rock of Ages'
p1427
aS'WB (NL)'
p1428
aF38518613.0
aS'3,470'
p1429
aF14437269.0
aS'3,470'
p1430
aS'6/15'
p1431
aS'8/16'
p1432
aI2012
aa(lp1433
S'30'
p1434
aS'Abraham Lincoln: Vampire Hunter'
p1435
aS'Fox'
p1436
aF37519139.0
aS'3,109'
p1437
aF16306974.0
aS'3,108'
p1438
aS'6/22'
p1439
aS'9/20'
p1440
aI2012
aa(lp1441
S'31'
p1442
aS'Lawless'
p1443
aS'Wein.'
p1444
aF37400127.0
aS'3,138'
p1445
aF10001982.0
aS'2,888'
p1446
aS'8/29'
p1447
aS'11/29'
p1448
aI2012
aa(lp1449
S'32'
p1450
aS"That's My Boy"
p1451
aS'Sony'
p1452
aF36931089.0
aS'3,030'
p1453
aF13453714.0
aS'3,030'
p1454
aS'6/15'
p1455
aS'7/22'
p1456
aI2012
aa(lp1457
S'33'
p1458
aS'The Watch'
p1459
aS'Fox'
p1460
aF35353000.0
aS'3,168'
p1461
aF12750297.0
aS'3,168'
p1462
aS'7/27'
p1463
aS'10/18'
p1464
aI2012
aa(lp1465
S'34'
p1466
aS'Step Up Revolution'
p1467
aS'LG/S'
p1468
aF35074677.0
aS'2,606'
p1469
aF11731708.0
aS'2,567'
p1470
aS'7/27'
p1471
aS'10/4'
p1472
aI2012
aa(lp1473
S'35'
p1474
aS"2016 Obama's America"
p1475
aS'RM'
p1476
aF33449086.0
aS'2,017'
p1477
aF31610.0
aS'1'
p1478
aS'7/13'
p1479
aS'10/11'
p1480
aI2012
aa(lp1481
S'36'
p1482
aS'Katy Perry: Part of Me'
p1483
aS'Par.'
p1484
aF25326071.0
aS'2,732'
p1485
aF7138266.0
aS'2,730'
p1486
aS'7/5'
p1487
aS'8/30'
p1488
aI2012
aa(lp1489
S'37'
p1490
aS'Sparkle (2012)'
p1491
aS'TriS'
p1492
aF24397469.0
aS'2,244'
p1493
aF11643342.0
aS'2,244'
p1494
aS'8/17'
p1495
aS'9/30'
p1496
aI2012
aa(lp1497
S'38'
p1498
aS'Premium Rush'
p1499
aS'Sony'
p1500
aF20275446.0
aS'2,255'
p1501
aF6030164.0
aS'2,255'
p1502
aS'8/24'
p1503
aS'10/21'
p1504
aI2012
aa(lp1505
S'39'
p1506
aS'Chernobyl Diaries'
p1507
aS'WB'
p1508
aF18119640.0
aS'2,433'
p1509
aF7955307.0
aS'2,433'
p1510
aS'5/25'
p1511
aS'7/19'
p1512
aI2012
aa(lp1513
S'40'
p1514
aS'To Rome with Love'
p1515
aS'SPC'
p1516
aF16685867.0
aS'806'
p1517
aF361359.0
aS'5'
p1518
aS'6/22'
p1519
aS'11/15'
p1520
aI2012
aa(lp1521
S'41'
p1522
aS'Hit and Run'
p1523
aS'ORF'
p1524
aF13749300.0
aS'2,870'
p1525
aF4526222.0
aS'2,870'
p1526
aS'8/22'
p1527
aS'10/11'
p1528
aI2012
aa(lp1529
S'42'
p1530
aS'Beasts of the Southern Wild'
p1531
aS'FoxS'
p1532
aF12795746.0
aS'318'
p1533
aF169702.0
aS'4'
p1534
aS'6/27'
p1535
aS'3/21'
p1536
aI2012
aa(lp1537
S'43'
p1538
aS'People Like Us'
p1539
aS'BV'
p1540
aF12434778.0
aS'2,055'
p1541
aF4255423.0
aS'2,055'
p1542
aS'6/29'
p1543
aS'8/30'
p1544
aI2012
aa(lp1545
S'44'
p1546
aS'The Intouchables (U.S.-only)'
p1547
aS'Wein.'
p1548
aF10198820.0
aS'194'
p1549
aF103507.0
aS'4'
p1550
aS'5/25'
p1551
aS'1/17'
p1552
aI2012
aa(lp1553
S'45'
p1554
aS'Seeking a Friend for the End of the World'
p1555
aS'Focus'
p1556
aF7078738.0
aS'1,625'
p1557
aF3822803.0
aS'1,625'
p1558
aS'6/22'
p1559
aS'7/5'
p1560
aI2012
aa(lp1561
S'46'
p1562
aS'For Greater Glory'
p1563
aS'ArcEnt'
p1564
aF5672846.0
aS'757'
p1565
aF1885608.0
aS'757'
p1566
aS'6/1'
p1567
aS'8/16'
p1568
aI2012
aa(lp1569
S'47'
p1570
aS'The Apparition'
p1571
aS'WB'
p1572
aF4936819.0
aS'810'
p1573
aF2841488.0
aS'810'
p1574
aS'8/24'
p1575
aS'10/11'
p1576
aI2012
aa(lp1577
S'48'
p1578
aS'Safety Not Guaranteed'
p1579
aS'FD'
p1580
aF4010957.0
aS'182'
p1581
aF97762.0
aS'9'
p1582
aS'6/8'
p1583
aS'10/18'
p1584
aI2012
aa(lp1585
S'49'
p1586
aS'Searching for Sugar Man'
p1587
aS'SPC'
p1588
aF3696196.0
aS'157'
p1589
aF27459.0
aS'3'
p1590
aS'7/27'
p1591
aS'8/22'
p1592
aI2012
aa(lp1593
S'50'
p1594
aS'Nitro Circus the Movie 3D'
p1595
aS'ArcEnt'
p1596
aF3377618.0
aS'800'
p1597
aF1183701.0
aS'800'
p1598
aS'8/8'
p1599
aS'10/11'
p1600
aI2012
aa(lp1601
S'1'
p1602
aS'Harry Potter and the Deathly Hallows Part 2'
p1603
aS'WB'
p1604
aF381011219.0
aS'4,375'
p1605
aF169189427.0
aS'4,375'
p1606
aS'7/15'
p1607
aS'11/24'
p1608
aI2011
aa(lp1609
S'2'
p1610
aS'Transformers: Dark of the Moon'
p1611
aS'P/DW'
p1612
aF352390543.0
aS'4,088'
p1613
aF97852865.0
aS'4,088'
p1614
aS'6/29'
p1615
aS'10/13'
p1616
aI2011
aa(lp1617
S'3'
p1618
aS'The Hangover Part II'
p1619
aS'WB'
p1620
aF254464305.0
aS'3,675'
p1621
aF85946294.0
aS'3,615'
p1622
aS'5/26'
p1623
aS'9/15'
p1624
aI2011
aa(lp1625
S'4'
p1626
aS'Pirates of the Caribbean: On Stranger Tides'
p1627
aS'BV'
p1628
aF241071802.0
aS'4,164'
p1629
aF90151958.0
aS'4,155'
p1630
aS'5/20'
p1631
aS'9/29'
p1632
aI2011
aa(lp1633
S'5'
p1634
aS'Cars 2'
p1635
aS'BV'
p1636
aF191452396.0
aS'4,115'
p1637
aF66135507.0
aS'4,115'
p1638
aS'6/24'
p1639
aS'12/15'
p1640
aI2011
aa(lp1641
S'6'
p1642
aS'Thor'
p1643
aS'Par.'
p1644
aF181030624.0
aS'3,963'
p1645
aF65723338.0
aS'3,955'
p1646
aS'5/6'
p1647
aS'8/25'
p1648
aI2011
aa(lp1649
S'7'
p1650
aS'Rise of the Planet of the Apes'
p1651
aS'Fox'
p1652
aF176760185.0
aS'3,691'
p1653
aF54806191.0
aS'3,648'
p1654
aS'8/5'
p1655
aS'12/15'
p1656
aI2011
aa(lp1657
S'8'
p1658
aS'Captain America: The First Avenger'
p1659
aS'Par.'
p1660
aF176654505.0
aS'3,715'
p1661
aF65058524.0
aS'3,715'
p1662
aS'7/22'
p1663
aS'11/10'
p1664
aI2011
aa(lp1665
S'9'
p1666
aS'The Help'
p1667
aS'BV'
p1668
aF169708112.0
aS'3,014'
p1669
aF26044590.0
aS'2,534'
p1670
aS'8/10'
p1671
aS'3/8'
p1672
aI2011
aa(lp1673
S'10'
p1674
aS'Bridesmaids'
p1675
aS'Uni.'
p1676
aF169106725.0
aS'2,958'
p1677
aF26247410.0
aS'2,918'
p1678
aS'5/13'
p1679
aS'9/29'
p1680
aI2011
aa(lp1681
S'11'
p1682
aS'Kung Fu Panda 2'
p1683
aS'P/DW'
p1684
aF165249063.0
aS'3,952'
p1685
aF47656302.0
aS'3,925'
p1686
aS'5/26'
p1687
aS'9/29'
p1688
aI2011
aa(lp1689
S'12'
p1690
aS'X-Men: First Class'
p1691
aS'Fox'
p1692
aF146408305.0
aS'3,692'
p1693
aF55101604.0
aS'3,641'
p1694
aS'6/3'
p1695
aS'9/29'
p1696
aI2011
aa(lp1697
S'13'
p1698
aS'The Smurfs'
p1699
aS'Sony'
p1700
aF142614158.0
aS'3,427'
p1701
aF35611637.0
aS'3,395'
p1702
aS'7/29'
p1703
aS'12/15'
p1704
aI2011
aa(lp1705
S'14'
p1706
aS'Super 8'
p1707
aS'Par.'
p1708
aF127004179.0
aS'3,424'
p1709
aF35451168.0
aS'3,379'
p1710
aS'6/10'
p1711
aS'9/29'
p1712
aI2011
aa(lp1713
S'15'
p1714
aS'Horrible Bosses'
p1715
aS'WB (NL)'
p1716
aF117538559.0
aS'3,134'
p1717
aF28302165.0
aS'3,040'
p1718
aS'7/8'
p1719
aS'10/27'
p1720
aI2011
aa(lp1721
S'16'
p1722
aS'Green Lantern'
p1723
aS'WB'
p1724
aF116601172.0
aS'3,816'
p1725
aF53174303.0
aS'3,816'
p1726
aS'6/17'
p1727
aS'9/29'
p1728
aI2011
aa(lp1729
S'17'
p1730
aS'Bad Teacher'
p1731
aS'Sony'
p1732
aF100292856.0
aS'3,049'
p1733
aF31603106.0
aS'3,049'
p1734
aS'6/24'
p1735
aS'10/13'
p1736
aI2011
aa(lp1737
S'18'
p1738
aS'Cowboys & Aliens'
p1739
aS'Uni.'
p1740
aF100240551.0
aS'3,754'
p1741
aF36431290.0
aS'3,750'
p1742
aS'7/29'
p1743
aS'11/3'
p1744
aI2011
aa(lp1745
S'19'
p1746
aS'Crazy, Stupid, Love.'
p1747
aS'WB'
p1748
aF84351197.0
aS'3,020'
p1749
aF19104303.0
aS'3,020'
p1750
aS'7/29'
p1751
aS'11/24'
p1752
aI2011
aa(lp1753
S'20'
p1754
aS'Zookeeper'
p1755
aS'Sony'
p1756
aF80360843.0
aS'3,482'
p1757
aF20065617.0
aS'3,482'
p1758
aS'7/8'
p1759
aS'10/27'
p1760
aI2011
aa(lp1761
S'21'
p1762
aS"Mr. Popper's Penguins"
p1763
aS'Fox'
p1764
aF68224452.0
aS'3,342'
p1765
aF18445355.0
aS'3,339'
p1766
aS'6/17'
p1767
aS'10/20'
p1768
aI2011
aa(lp1769
S'22'
p1770
aS'Midnight in Paris'
p1771
aS'SPC'
p1772
aF56817045.0
aS'1,038'
p1773
aF599003.0
aS'6'
p1774
aS'5/20'
p1775
aS'3/22'
p1776
aI2011
aa(lp1777
S'23'
p1778
aS'Friends with Benefits'
p1779
aS'SGem'
p1780
aF55802754.0
aS'2,926'
p1781
aF18622150.0
aS'2,926'
p1782
aS'7/22'
p1783
aS'9/22'
p1784
aI2011
aa(lp1785
S'24'
p1786
aS'Final Destination 5'
p1787
aS'WB (NL)'
p1788
aF42587643.0
aS'3,155'
p1789
aF18031396.0
aS'3,155'
p1790
aS'8/12'
p1791
aS'10/13'
p1792
aI2011
aa(lp1793
S'25'
p1794
aS'Something Borrowed'
p1795
aS'WB'
p1796
aF39046489.0
aS'2,904'
p1797
aF13945368.0
aS'2,904'
p1798
aS'5/6'
p1799
aS'7/28'
p1800
aI2011
aa(lp1801
S'26'
p1802
aS'Spy Kids: All the Time in the World'
p1803
aS'W/Dim.'
p1804
aF38538188.0
aS'3,305'
p1805
aF11644672.0
aS'3,295'
p1806
aS'8/19'
p1807
aS'12/15'
p1808
aI2011
aa(lp1809
S'27'
p1810
aS'Jumping the Broom'
p1811
aS'TriS'
p1812
aF37295394.0
aS'2,035'
p1813
aF15215487.0
aS'2,035'
p1814
aS'5/6'
p1815
aS'6/30'
p1816
aI2011
aa(lp1817
S'28'
p1818
aS'The Change-Up'
p1819
aS'Uni.'
p1820
aF37081475.0
aS'2,913'
p1821
aF13531115.0
aS'2,913'
p1822
aS'8/5'
p1823
aS'9/29'
p1824
aI2011
aa(lp1825
S'29'
p1826
aS'30 Minutes or Less'
p1827
aS'Sony'
p1828
aF37053924.0
aS'2,888'
p1829
aF13330118.0
aS'2,888'
p1830
aS'8/12'
p1831
aS'9/29'
p1832
aI2011
aa(lp1833
S'30'
p1834
aS'Colombiana'
p1835
aS'TriS'
p1836
aF36665854.0
aS'2,614'
p1837
aF10408176.0
aS'2,614'
p1838
aS'8/26'
p1839
aS'11/3'
p1840
aI2011
aa(lp1841
S'31'
p1842
aS'Larry Crowne'
p1843
aS'Uni.'
p1844
aF35608245.0
aS'2,976'
p1845
aF13096065.0
aS'2,973'
p1846
aS'7/1'
p1847
aS'8/18'
p1848
aI2011
aa(lp1849
S'32'
p1850
aS'The Debt'
p1851
aS'Focus'
p1852
aF31177548.0
aS'1,874'
p1853
aF9909499.0
aS'1,826'
p1854
aS'8/31'
p1855
aS'11/3'
p1856
aI2011
aa(lp1857
S'33'
p1858
aS'Priest'
p1859
aS'SGem'
p1860
aF29136626.0
aS'2,864'
p1861
aF14953664.0
aS'2,864'
p1862
aS'5/13'
p1863
aS'6/23'
p1864
aI2011
aa(lp1865
S'34'
p1866
aS'Winnie the Pooh'
p1867
aS'BV'
p1868
aF26692846.0
aS'2,405'
p1869
aF7857076.0
aS'2,405'
p1870
aS'7/15'
p1871
aS'9/22'
p1872
aI2011
aa(lp1873
S'35'
p1874
aS'Our Idiot Brother'
p1875
aS'Wein.'
p1876
aF24816118.0
aS'2,555'
p1877
aF7011631.0
aS'2,555'
p1878
aS'8/26'
p1879
aS'11/24'
p1880
aI2011
aa(lp1881
S'36'
p1882
aS"Don't Be Afraid of the Dark"
p1883
aS'FD'
p1884
aF24046682.0
aS'2,780'
p1885
aF8525728.0
aS'2,760'
p1886
aS'8/26'
p1887
aS'11/17'
p1888
aI2011
aa(lp1889
S'37'
p1890
aS'Monte Carlo'
p1891
aS'Fox'
p1892
aF23186769.0
aS'2,473'
p1893
aF7453944.0
aS'2,473'
p1894
aS'7/1'
p1895
aS'9/29'
p1896
aI2011
aa(lp1897
S'38'
p1898
aS'Conan the Barbarian (2011)'
p1899
aS'LGF'
p1900
aF21295021.0
aS'3,015'
p1901
aF10021215.0
aS'3,015'
p1902
aS'8/19'
p1903
aS'10/6'
p1904
aI2011
aa(lp1905
S'39'
p1906
aS'Shark Night 3D'
p1907
aS'Rela.'
p1908
aF18877153.0
aS'2,848'
p1909
aF8404260.0
aS'2,806'
p1910
aS'9/2'
p1911
aS'11/24'
p1912
aI2011
aa(lp1913
S'40'
p1914
aS'Fright Night (2011)'
p1915
aS'BV'
p1916
aF18302607.0
aS'3,114'
p1917
aF7714388.0
aS'3,114'
p1918
aS'8/19'
p1919
aS'11/10'
p1920
aI2011
aa(lp1921
S'41'
p1922
aS'Apollo 18'
p1923
aS'W/Dim.'
p1924
aF17687709.0
aS'3,330'
p1925
aF8704271.0
aS'3,328'
p1926
aS'9/2'
p1927
aS'11/24'
p1928
aI2011
aa(lp1929
S'42'
p1930
aS'Judy Moody and the NOT Bummer Summer'
p1931
aS'Rela.'
p1932
aF15013650.0
aS'2,524'
p1933
aF6076859.0
aS'2,524'
p1934
aS'6/10'
p1935
aS'8/18'
p1936
aI2011
aa(lp1937
S'43'
p1938
aS'One Day'
p1939
aS'Focus'
p1940
aF13843771.0
aS'1,725'
p1941
aF5079566.0
aS'1,719'
p1942
aS'8/19'
p1943
aS'9/22'
p1944
aI2011
aa(lp1945
S'44'
p1946
aS'The Tree of Life'
p1947
aS'FoxS'
p1948
aF13303319.0
aS'237'
p1949
aF372920.0
aS'4'
p1950
aS'5/27'
p1951
aS'10/27'
p1952
aI2011
aa(lp1953
S'45'
p1954
aS'Glee The 3D Concert Movie'
p1955
aS'Fox'
p1956
aF11862398.0
aS'2,040'
p1957
aF5961231.0
aS'2,040'
p1958
aS'8/12'
p1959
aS'9/29'
p1960
aI2011
aa(lp1961
S'46'
p1962
aS"Sarah's Key"
p1963
aS'Wein.'
p1964
aF7693187.0
aS'319'
p1965
aF115708.0
aS'5'
p1966
aS'7/22'
p1967
aS'12/8'
p1968
aI2011
aa(lp1969
S'47'
p1970
aS'Beginners'
p1971
aS'Focus'
p1972
aF5790894.0
aS'170'
p1973
aF141340.0
aS'5'
p1974
aS'6/3'
p1975
aS'9/8'
p1976
aI2011
aa(lp1977
S'48'
p1978
aS'The Guard'
p1979
aS'SPC'
p1980
aF5360274.0
aS'203'
p1981
aF76834.0
aS'4'
p1982
aS'7/29'
p1983
aS'2/9'
p1984
aI2011
aa(lp1985
S'49'
p1986
aS'Seven Days in Utopia'
p1987
aS'Visio'
p1988
aF4373074.0
aS'561'
p1989
aF1316910.0
aS'561'
p1990
aS'9/2'
p1991
aS'11/3'
p1992
aI2011
aa(lp1993
S'50'
p1994
aS'Buck'
p1995
aS'IFC'
p1996
aF4038912.0
aS'152'
p1997
aF67548.0
aS'4'
p1998
aS'6/17'
p1999
aS'9/25'
p2000
aI2011
aa(lp2001
S'1'
p2002
aS'Toy Story 3'
p2003
aS'BV'
p2004
aF415004880.0
aS'4,028'
p2005
aF110307189.0
aS'4,028'
p2006
aS'6/18'
p2007
aS'12/2'
p2008
aI2010
aa(lp2009
S'2'
p2010
aS'Iron Man 2'
p2011
aS'Par.'
p2012
aF312433331.0
aS'4,390'
p2013
aF128122480.0
aS'4,380'
p2014
aS'5/7'
p2015
aS'8/19'
p2016
aI2010
aa(lp2017
S'3'
p2018
aS'The Twilight Saga: Eclipse'
p2019
aS'Sum.'
p2020
aF300531751.0
aS'4,468'
p2021
aF64832191.0
aS'4,468'
p2022
aS'6/30'
p2023
aS'10/21'
p2024
aI2010
aa(lp2025
S'4'
p2026
aS'Inception'
p2027
aS'WB'
p2028
aF292576195.0
aS'3,792'
p2029
aF62785337.0
aS'3,792'
p2030
aS'7/16'
p2031
aS'1/6'
p2032
aI2010
aa(lp2033
S'5'
p2034
aS'Despicable Me'
p2035
aS'Uni.'
p2036
aF251513985.0
aS'3,602'
p2037
aF56397125.0
aS'3,476'
p2038
aS'7/9'
p2039
aS'1/20'
p2040
aI2010
aa(lp2041
S'6'
p2042
aS'Shrek Forever After'
p2043
aS'P/DW'
p2044
aF238736787.0
aS'4,386'
p2045
aF70838207.0
aS'4,359'
p2046
aS'5/21'
p2047
aS'9/9'
p2048
aI2010
aa(lp2049
S'7'
p2050
aS'The Karate Kid'
p2051
aS'Sony'
p2052
aF176591618.0
aS'3,740'
p2053
aF55665805.0
aS'3,663'
p2054
aS'6/11'
p2055
aS'9/23'
p2056
aI2010
aa(lp2057
S'8'
p2058
aS'Grown Ups'
p2059
aS'Sony'
p2060
aF162001186.0
aS'3,534'
p2061
aF40506562.0
aS'3,534'
p2062
aS'6/25'
p2063
aS'10/28'
p2064
aI2010
aa(lp2065
S'9'
p2066
aS'The Last Airbender'
p2067
aS'Par.'
p2068
aF131772187.0
aS'3,203'
p2069
aF40325019.0
aS'3,169'
p2070
aS'7/1'
p2071
aS'9/23'
p2072
aI2010
aa(lp2073
S'10'
p2074
aS'The Other Guys'
p2075
aS'Sony'
p2076
aF119219978.0
aS'3,651'
p2077
aF35543162.0
aS'3,651'
p2078
aS'8/6'
p2079
aS'11/18'
p2080
aI2010
aa(lp2081
S'11'
p2082
aS'Salt'
p2083
aS'Sony'
p2084
aF118311368.0
aS'3,612'
p2085
aF36011243.0
aS'3,612'
p2086
aS'7/23'
p2087
aS'10/28'
p2088
aI2010
aa(lp2089
S'12'
p2090
aS'Robin Hood'
p2091
aS'Uni.'
p2092
aF105269730.0
aS'3,505'
p2093
aF36063385.0
aS'3,503'
p2094
aS'5/14'
p2095
aS'8/5'
p2096
aI2010
aa(lp2097
S'13'
p2098
aS'The Expendables'
p2099
aS'LGF'
p2100
aF103068524.0
aS'3,398'
p2101
aF34825135.0
aS'3,270'
p2102
aS'8/13'
p2103
aS'10/21'
p2104
aI2010
aa(lp2105
S'14'
p2106
aS'Sex and the City 2'
p2107
aS'WB (NL)'
p2108
aF95347692.0
aS'3,445'
p2109
aF31001870.0
aS'3,445'
p2110
aS'5/27'
p2111
aS'8/19'
p2112
aI2010
aa(lp2113
S'15'
p2114
aS'Prince of Persia: The Sands of Time'
p2115
aS'BV'
p2116
aF90759676.0
aS'3,646'
p2117
aF30095259.0
aS'3,646'
p2118
aS'5/28'
p2119
aS'9/23'
p2120
aI2010
aa(lp2121
S'16'
p2122
aS'Eat Pray Love'
p2123
aS'Sony'
p2124
aF80574010.0
aS'3,108'
p2125
aF23104523.0
aS'3,082'
p2126
aS'8/13'
p2127
aS'11/4'
p2128
aI2010
aa(lp2129
S'17'
p2130
aS'The A-Team'
p2131
aS'Fox'
p2132
aF77222099.0
aS'3,544'
p2133
aF25669455.0
aS'3,535'
p2134
aS'6/11'
p2135
aS'9/16'
p2136
aI2010
aa(lp2137
S'18'
p2138
aS'Knight & Day'
p2139
aS'Fox'
p2140
aF76423035.0
aS'3,104'
p2141
aF20139985.0
aS'3,098'
p2142
aS'6/23'
p2143
aS'10/7'
p2144
aI2010
aa(lp2145
S'19'
p2146
aS'Dinner for Schmucks'
p2147
aS'P/DW'
p2148
aF73026337.0
aS'3,046'
p2149
aF23527839.0
aS'2,911'
p2150
aS'7/30'
p2151
aS'10/14'
p2152
aI2010
aa(lp2153
S'20'
p2154
aS"The Sorcerer's Apprentice"
p2155
aS'BV'
p2156
aF63150991.0
aS'3,504'
p2157
aF17619622.0
aS'3,504'
p2158
aS'7/14'
p2159
aS'10/28'
p2160
aI2010
aa(lp2161
S'21'
p2162
aS'Get Him to the Greek'
p2163
aS'Uni.'
p2164
aF60974475.0
aS'2,702'
p2165
aF17570955.0
aS'2,697'
p2166
aS'6/4'
p2167
aS'8/12'
p2168
aI2010
aa(lp2169
S'22'
p2170
aS'Takers'
p2171
aS'SGem'
p2172
aF57744720.0
aS'2,206'
p2173
aF20512304.0
aS'2,206'
p2174
aS'8/27'
p2175
aS'11/18'
p2176
aI2010
aa(lp2177
S'23'
p2178
aS'Letters to Juliet'
p2179
aS'Sum.'
p2180
aF53032453.0
aS'2,975'
p2181
aF13540486.0
aS'2,968'
p2182
aS'5/14'
p2183
aS'8/26'
p2184
aI2010
aa(lp2185
S'24'
p2186
aS'Predators'
p2187
aS'Fox'
p2188
aF52000688.0
aS'2,669'
p2189
aF24760882.0
aS'2,669'
p2190
aS'7/9'
p2191
aS'10/14'
p2192
aI2010
aa(lp2193
S'25'
p2194
aS'Killers'
p2195
aS'LGF'
p2196
aF47059963.0
aS'2,859'
p2197
aF15837266.0
aS'2,859'
p2198
aS'6/4'
p2199
aS'8/19'
p2200
aI2010
aa(lp2201
S'26'
p2202
aS'Cats & Dogs: The Revenge of Kitty Galore'
p2203
aS'WB'
p2204
aF43585753.0
aS'3,705'
p2205
aF12279363.0
aS'3,705'
p2206
aS'7/30'
p2207
aS'10/21'
p2208
aI2010
aa(lp2209
S'27'
p2210
aS'Step Up 3-D'
p2211
aS'BV'
p2212
aF42400223.0
aS'2,439'
p2213
aF15812311.0
aS'2,435'
p2214
aS'8/6'
p2215
aS'11/4'
p2216
aI2010
aa(lp2217
S'28'
p2218
aS'The Last Exorcism'
p2219
aS'LGF'
p2220
aF41034350.0
aS'2,874'
p2221
aF20366613.0
aS'2,874'
p2222
aS'8/27'
p2223
aS'10/7'
p2224
aI2010
aa(lp2225
S'29'
p2226
aS'Vampires Suck'
p2227
aS'Fox'
p2228
aF36661504.0
aS'3,233'
p2229
aF12202831.0
aS'3,233'
p2230
aS'8/18'
p2231
aS'11/11'
p2232
aI2010
aa(lp2233
S'30'
p2234
aS'The American'
p2235
aS'Focus'
p2236
aF35606376.0
aS'2,833'
p2237
aF13177790.0
aS'2,823'
p2238
aS'9/1'
p2239
aS'11/4'
p2240
aI2010
aa(lp2241
S'31'
p2242
aS'Marmaduke'
p2243
aS'Fox'
p2244
aF33644788.0
aS'3,213'
p2245
aF11599661.0
aS'3,213'
p2246
aS'6/4'
p2247
aS'9/16'
p2248
aI2010
aa(lp2249
S'32'
p2250
aS'Scott Pilgrim vs. the World'
p2251
aS'Uni.'
p2252
aF31524275.0
aS'2,820'
p2253
aF10609795.0
aS'2,818'
p2254
aS'8/13'
p2255
aS'10/7'
p2256
aI2010
aa(lp2257
S'33'
p2258
aS'Charlie St. Cloud'
p2259
aS'Uni.'
p2260
aF31162545.0
aS'2,725'
p2261
aF12381585.0
aS'2,718'
p2262
aS'7/30'
p2263
aS'9/16'
p2264
aI2010
aa(lp2265
S'34'
p2266
aS'Nanny McPhee Returns'
p2267
aS'Uni.'
p2268
aF29011215.0
aS'2,798'
p2269
aF8407685.0
aS'2,784'
p2270
aS'8/20'
p2271
aS'10/28'
p2272
aI2010
aa(lp2273
S'35'
p2274
aS'The Switch'
p2275
aS'Mira.'
p2276
aF27779426.0
aS'2,017'
p2277
aF8436713.0
aS'2,012'
p2278
aS'8/20'
p2279
aS'11/18'
p2280
aI2010
aa(lp2281
S'36'
p2282
aS'Machete'
p2283
aS'Fox'
p2284
aF26593646.0
aS'2,678'
p2285
aF11416164.0
aS'2,670'
p2286
aS'9/3'
p2287
aS'11/18'
p2288
aI2010
aa(lp2289
S'37'
p2290
aS'Ramona and Beezus'
p2291
aS'Fox'
p2292
aF26167002.0
aS'2,719'
p2293
aF7810481.0
aS'2,719'
p2294
aS'7/23'
p2295
aS'11/11'
p2296
aI2010
aa(lp2297
S'38'
p2298
aS'Piranha 3D'
p2299
aS'W/Dim.'
p2300
aF25003155.0
aS'2,491'
p2301
aF10106872.0
aS'2,470'
p2302
aS'8/20'
p2303
aS'11/18'
p2304
aI2010
aa(lp2305
S'39'
p2306
aS'Lottery Ticket'
p2307
aS'WB'
p2308
aF24719879.0
aS'1,974'
p2309
aF10652297.0
aS'1,973'
p2310
aS'8/20'
p2311
aS'11/4'
p2312
aI2010
aa(lp2313
S'40'
p2314
aS'Just Wright'
p2315
aS'FoxS'
p2316
aF21540363.0
aS'1,831'
p2317
aF8284989.0
aS'1,831'
p2318
aS'5/14'
p2319
aS'8/5'
p2320
aI2010
aa(lp2321
S'41'
p2322
aS'The Kids Are All Right'
p2323
aS'Focus'
p2324
aF20811365.0
aS'994'
p2325
aF491971.0
aS'7'
p2326
aS'7/9'
p2327
aS'10/21'
p2328
aI2010
aa(lp2329
S'42'
p2330
aS'Going the Distance'
p2331
aS'WB (NL)'
p2332
aF17804299.0
aS'3,030'
p2333
aF6884964.0
aS'3,030'
p2334
aS'9/3'
p2335
aS'10/21'
p2336
aI2010
aa(lp2337
S'43'
p2338
aS'Splice'
p2339
aS'WB'
p2340
aF17010170.0
aS'2,450'
p2341
aF7385277.0
aS'2,450'
p2342
aS'6/4'
p2343
aS'8/5'
p2344
aI2010
aa(lp2345
S'44'
p2346
aS'Avatar: Special Edition'
p2347
aS'Fox'
p2348
aF10741486.0
aS'812'
p2349
aF4007750.0
aS'812'
p2350
aS'8/27'
p2351
aS'11/18'
p2352
aI2010
aa(lp2353
S'45'
p2354
aS'Jonah Hex'
p2355
aS'WB'
p2356
aF10547117.0
aS'2,825'
p2357
aF5379365.0
aS'2,825'
p2358
aS'6/18'
p2359
aS'8/12'
p2360
aI2010
aa(lp2361
S'46'
p2362
aS'Get Low'
p2363
aS'SPC'
p2364
aF9176933.0
aS'570'
p2365
aF88182.0
aS'4'
p2366
aS'7/30'
p2367
aS'2/24'
p2368
aI2010
aa(lp2369
S'47'
p2370
aS'MacGruber'
p2371
aS'Uni.'
p2372
aF8525600.0
aS'2,551'
p2373
aF4043495.0
aS'2,551'
p2374
aS'5/21'
p2375
aS'6/10'
p2376
aI2010
aa(lp2377
S'48'
p2378
aS'The Girl Who Played with Fire'
p2379
aS'MBox'
p2380
aF7638241.0
aS'185'
p2381
aF904998.0
aS'108'
p2382
aS'7/9'
p2383
aS'2/10'
p2384
aI2010
aa(lp2385
S'49'
p2386
aS'Cyrus'
p2387
aS'FoxS'
p2388
aF7468936.0
aS'454'
p2389
aF181716.0
aS'4'
p2390
aS'6/18'
p2391
aS'10/14'
p2392
aI2010
aa(lp2393
S'50'
p2394
aS'Babies'
p2395
aS'Focus'
p2396
aF7320323.0
aS'543'
p2397
aF2160460.0
aS'534'
p2398
aS'5/7'
p2399
aS'7/8'
p2400
aI2010
aa(lp2401
S'1'
p2402
aS'Transformers: Revenge of the Fallen'
p2403
aS'P/DW'
p2404
aF402111870.0
aS'4,293'
p2405
aF108966307.0
aS'4,234'
p2406
aS'6/24'
p2407
aS'10/15'
p2408
aI2009
aa(lp2409
S'2'
p2410
aS'Harry Potter and the Half-Blood Prince'
p2411
aS'WB'
p2412
aF301959197.0
aS'4,455'
p2413
aF77835727.0
aS'4,325'
p2414
aS'7/15'
p2415
aS'12/17'
p2416
aI2009
aa(lp2417
S'3'
p2418
aS'Up'
p2419
aS'BV'
p2420
aF293004164.0
aS'3,886'
p2421
aF68108790.0
aS'3,766'
p2422
aS'5/29'
p2423
aS'11/5'
p2424
aI2009
aa(lp2425
S'4'
p2426
aS'The Hangover'
p2427
aS'WB'
p2428
aF277322503.0
aS'3,545'
p2429
aF44979319.0
aS'3,269'
p2430
aS'6/5'
p2431
aS'12/17'
p2432
aI2009
aa(lp2433
S'5'
p2434
aS'Star Trek'
p2435
aS'Par.'
p2436
aF257730019.0
aS'4,053'
p2437
aF75204289.0
aS'3,849'
p2438
aS'5/8'
p2439
aS'10/1'
p2440
aI2009
aa(lp2441
S'6'
p2442
aS'Ice Age: Dawn of the Dinosaurs'
p2443
aS'Fox'
p2444
aF196573705.0
aS'4,102'
p2445
aF41690382.0
aS'4,099'
p2446
aS'7/1'
p2447
aS'11/22'
p2448
aI2009
aa(lp2449
S'7'
p2450
aS'X-Men Origins: Wolverine'
p2451
aS'Fox'
p2452
aF179883157.0
aS'4,102'
p2453
aF85058003.0
aS'4,099'
p2454
aS'5/1'
p2455
aS'10/1'
p2456
aI2009
aa(lp2457
S'8'
p2458
aS'Night at the Museum: Battle of the Smithsonian'
p2459
aS'Fox'
p2460
aF177243721.0
aS'4,101'
p2461
aF54173286.0
aS'4,096'
p2462
aS'5/22'
p2463
aS'11/1'
p2464
aI2009
aa(lp2465
S'9'
p2466
aS'The Proposal'
p2467
aS'BV'
p2468
aF163958031.0
aS'3,158'
p2469
aF33627598.0
aS'3,056'
p2470
aS'6/19'
p2471
aS'11/5'
p2472
aI2009
aa(lp2473
S'10'
p2474
aS'G.I. Joe: The Rise of Cobra'
p2475
aS'Par.'
p2476
aF150201498.0
aS'4,007'
p2477
aF54713046.0
aS'4,007'
p2478
aS'8/7'
p2479
aS'11/5'
p2480
aI2009
aa(lp2481
S'11'
p2482
aS'Angels & Demons'
p2483
aS'Sony'
p2484
aF133375846.0
aS'3,527'
p2485
aF46204168.0
aS'3,527'
p2486
aS'5/15'
p2487
aS'8/2'
p2488
aI2009
aa(lp2489
S'12'
p2490
aS'Terminator Salvation'
p2491
aS'WB'
p2492
aF125322469.0
aS'3,602'
p2493
aF42558390.0
aS'3,530'
p2494
aS'5/21'
p2495
aS'9/10'
p2496
aI2009
aa(lp2497
S'13'
p2498
aS'Inglourious Basterds'
p2499
aS'Wein.'
p2500
aF120540719.0
aS'3,358'
p2501
aF38054676.0
aS'3,165'
p2502
aS'8/21'
p2503
aS'12/17'
p2504
aI2009
aa(lp2505
S'14'
p2506
aS'G-Force'
p2507
aS'BV'
p2508
aF119436770.0
aS'3,697'
p2509
aF31706934.0
aS'3,697'
p2510
aS'7/24'
p2511
aS'12/3'
p2512
aI2009
aa(lp2513
S'15'
p2514
aS'District 9'
p2515
aS'TriS'
p2516
aF115646235.0
aS'3,180'
p2517
aF37354308.0
aS'3,049'
p2518
aS'8/14'
p2519
aS'11/1'
p2520
aI2009
aa(lp2521
S'16'
p2522
aS'Public Enemies'
p2523
aS'Uni.'
p2524
aF97104620.0
aS'3,336'
p2525
aF25271675.0
aS'3,334'
p2526
aS'7/1'
p2527
aS'9/3'
p2528
aI2009
aa(lp2529
S'17'
p2530
aS'Julie & Julia'
p2531
aS'Sony'
p2532
aF94125426.0
aS'2,528'
p2533
aF20027956.0
aS'2,354'
p2534
aS'8/7'
p2535
aS'11/29'
p2536
aI2009
aa(lp2537
S'18'
p2538
aS'The Ugly Truth'
p2539
aS'Sony'
p2540
aF88915214.0
aS'2,975'
p2541
aF27605576.0
aS'2,882'
p2542
aS'7/24'
p2543
aS'10/4'
p2544
aI2009
aa(lp2545
S'19'
p2546
aS'The Final Destination'
p2547
aS'WB (NL)'
p2548
aF66477700.0
aS'3,121'
p2549
aF27408309.0
aS'3,121'
p2550
aS'8/28'
p2551
aS'11/26'
p2552
aI2009
aa(lp2553
S'20'
p2554
aS'The Taking of Pelham 1 2 3'
p2555
aS'Sony'
p2556
aF65452312.0
aS'3,077'
p2557
aF23373102.0
aS'3,074'
p2558
aS'6/12'
p2559
aS'8/23'
p2560
aI2009
aa(lp2561
S'21'
p2562
aS"The Time Traveler's Wife"
p2563
aS'WB (NL)'
p2564
aF63414846.0
aS'2,988'
p2565
aF18623171.0
aS'2,988'
p2566
aS'8/14'
p2567
aS'12/3'
p2568
aI2009
aa(lp2569
S'22'
p2570
aS'Bruno'
p2571
aS'Uni.'
p2572
aF60054530.0
aS'2,759'
p2573
aF30619130.0
aS'2,756'
p2574
aS'7/10'
p2575
aS'8/20'
p2576
aI2009
aa(lp2577
S'23'
p2578
aS'Ghosts of Girlfriends Past'
p2579
aS'WB (NL)'
p2580
aF55250026.0
aS'3,175'
p2581
aF15411434.0
aS'3,175'
p2582
aS'5/1'
p2583
aS'8/13'
p2584
aI2009
aa(lp2585
S'24'
p2586
aS'Funny People'
p2587
aS'Uni.'
p2588
aF51855045.0
aS'3,008'
p2589
aF22657780.0
aS'3,007'
p2590
aS'7/31'
p2591
aS'9/17'
p2592
aI2009
aa(lp2593
S'25'
p2594
aS'Land of the Lost'
p2595
aS'Uni.'
p2596
aF49438370.0
aS'3,534'
p2597
aF18837350.0
aS'3,521'
p2598
aS'6/5'
p2599
aS'8/13'
p2600
aI2009
aa(lp2601
S'26'
p2602
aS"My Sister's Keeper"
p2603
aS'WB'
p2604
aF49200230.0
aS'2,606'
p2605
aF12442212.0
aS'2,606'
p2606
aS'6/26'
p2607
aS'10/8'
p2608
aI2009
aa(lp2609
S'27'
p2610
aS'Year One'
p2611
aS'Sony'
p2612
aF43337279.0
aS'3,024'
p2613
aF19610304.0
aS'3,022'
p2614
aS'6/19'
p2615
aS'8/16'
p2616
aI2009
aa(lp2617
S'28'
p2618
aS'Drag Me to Hell'
p2619
aS'Uni.'
p2620
aF42100625.0
aS'2,510'
p2621
aF15825480.0
aS'2,508'
p2622
aS'5/29'
p2623
aS'8/6'
p2624
aI2009
aa(lp2625
S'29'
p2626
aS'Orphan'
p2627
aS'WB'
p2628
aF41596251.0
aS'2,750'
p2629
aF12871483.0
aS'2,750'
p2630
aS'7/24'
p2631
aS'10/8'
p2632
aI2009
aa(lp2633
S'30'
p2634
aS'All About Steve'
p2635
aS'Fox'
p2636
aF33862903.0
aS'2,265'
p2637
aF11241214.0
aS'2,251'
p2638
aS'9/4'
p2639
aS'12/10'
p2640
aI2009
aa(lp2641
S'31'
p2642
aS'Halloween II (2009)'
p2643
aS'W/Dim.'
p2644
aF33392973.0
aS'3,088'
p2645
aF16349565.0
aS'3,025'
p2646
aS'8/28'
p2647
aS'11/24'
p2648
aI2009
aa(lp2649
S'32'
p2650
aS'(500) Days of Summer'
p2651
aS'FoxS'
p2652
aF32391374.0
aS'1,048'
p2653
aF834501.0
aS'27'
p2654
aS'7/17'
p2655
aS'11/22'
p2656
aI2009
aa(lp2657
S'33'
p2658
aS'Dance Flick'
p2659
aS'Par.'
p2660
aF25662155.0
aS'2,459'
p2661
aF10643536.0
aS'2,450'
p2662
aS'5/22'
p2663
aS'7/23'
p2664
aI2009
aa(lp2665
S'34'
p2666
aS'Aliens in the Attic'
p2667
aS'Fox'
p2668
aF25200412.0
aS'3,108'
p2669
aF8008423.0
aS'3,106'
p2670
aS'7/31'
p2671
aS'11/22'
p2672
aI2009
aa(lp2673
S'35'
p2674
aS'Shorts'
p2675
aS'WB'
p2676
aF20919166.0
aS'3,105'
p2677
aF6410339.0
aS'3,105'
p2678
aS'8/21'
p2679
aS'12/17'
p2680
aI2009
aa(lp2681
S'36'
p2682
aS'Gamer'
p2683
aS'LGF'
p2684
aF20534907.0
aS'2,502'
p2685
aF9156057.0
aS'2,502'
p2686
aS'9/4'
p2687
aS'10/8'
p2688
aI2009
aa(lp2689
S'37'
p2690
aS'The Hurt Locker'
p2691
aS'Sum.'
p2692
aF17017811.0
aS'535'
p2693
aF145352.0
aS'4'
p2694
aS'6/26'
p2695
aS'3/21'
p2696
aI2009
aa(lp2697
S'38'
p2698
aS'Imagine That'
p2699
aS'Par.'
p2700
aF16123323.0
aS'3,011'
p2701
aF5503519.0
aS'3,008'
p2702
aS'6/12'
p2703
aS'8/20'
p2704
aI2009
aa(lp2705
S'39'
p2706
aS'A Perfect Getaway'
p2707
aS'Uni.'
p2708
aF15515460.0
aS'2,159'
p2709
aF5948555.0
aS'2,159'
p2710
aS'8/7'
p2711
aS'9/17'
p2712
aI2009
aa(lp2713
S'40'
p2714
aS'The Goods: Live Hard, Sell Hard'
p2715
aS'ParV'
p2716
aF15122676.0
aS'1,849'
p2717
aF5642137.0
aS'1,838'
p2718
aS'8/14'
p2719
aS'10/1'
p2720
aI2009
aa(lp2721
S'41'
p2722
aS'Ponyo'
p2723
aS'BV'
p2724
aF15090399.0
aS'927'
p2725
aF3585852.0
aS'927'
p2726
aS'8/14'
p2727
aS'11/5'
p2728
aI2009
aa(lp2729
S'42'
p2730
aS'I Love You Beth Cooper'
p2731
aS'Fox'
p2732
aF14800725.0
aS'1,872'
p2733
aF4919433.0
aS'1,858'
p2734
aS'7/10'
p2735
aS'10/1'
p2736
aI2009
aa(lp2737
S'43'
p2738
aS'Extract'
p2739
aS'Mira.'
p2740
aF10823158.0
aS'1,614'
p2741
aF4340108.0
aS'1,611'
p2742
aS'9/4'
p2743
aS'10/15'
p2744
aI2009
aa(lp2745
S'44'
p2746
aS'Next Day Air'
p2747
aS'Sum.'
p2748
aF10027047.0
aS'1,139'
p2749
aF4111043.0
aS'1,138'
p2750
aS'5/8'
p2751
aS'7/2'
p2752
aI2009
aa(lp2753
S'45'
p2754
aS'Away We Go'
p2755
aS'Focus'
p2756
aF9451946.0
aS'506'
p2757
aF130411.0
aS'4'
p2758
aS'6/5'
p2759
aS'8/20'
p2760
aI2009
aa(lp2761
S'46'
p2762
aS'My Life in Ruins'
p2763
aS'FoxS'
p2764
aF8665206.0
aS'1,165'
p2765
aF3223161.0
aS'1,164'
p2766
aS'6/5'
p2767
aS'9/3'
p2768
aI2009
aa(lp2769
S'47'
p2770
aS'The Collector'
p2771
aS'Free'
p2772
aF7712114.0
aS'1,325'
p2773
aF3576296.0
aS'1,325'
p2774
aS'7/31'
p2775
aS'9/24'
p2776
aI2009
aa(lp2777
S'48'
p2778
aS'Taking Woodstock'
p2779
aS'Focus'
p2780
aF7460204.0
aS'1,395'
p2781
aF3457760.0
aS'1,393'
p2782
aS'8/26'
p2783
aS'10/1'
p2784
aI2009
aa(lp2785
S'49'
p2786
aS'Post Grad'
p2787
aS'Fox'
p2788
aF6380019.0
aS'1,959'
p2789
aF2651996.0
aS'1,959'
p2790
aS'8/21'
p2791
aS'10/15'
p2792
aI2009
aa(lp2793
S'50'
p2794
aS'Whatever Works'
p2795
aS'SPC'
p2796
aF5306706.0
aS'353'
p2797
aF266162.0
aS'9'
p2798
aS'6/19'
p2799
aS'11/5'
p2800
aI2009
aa(lp2801
S'1'
p2802
aS'The Dark Knight'
p2803
aS'WB'
p2804
aF533345358.0
aS'4,366'
p2805
aF158411483.0
aS'4,366'
p2806
aS'7/18'
p2807
aS'3/5'
p2808
aI2008
aa(lp2809
S'2'
p2810
aS'Iron Man'
p2811
aS'Par.'
p2812
aF318412101.0
aS'4,154'
p2813
aF98618668.0
aS'4,105'
p2814
aS'5/2'
p2815
aS'10/2'
p2816
aI2008
aa(lp2817
S'3'
p2818
aS'Indiana Jones and the Kingdom of the Crystal Skull'
p2819
aS'Par.'
p2820
aF317101119.0
aS'4,264'
p2821
aF100137835.0
aS'4,260'
p2822
aS'5/22'
p2823
aS'10/16'
p2824
aI2008
aa(lp2825
S'4'
p2826
aS'Hancock'
p2827
aS'Sony'
p2828
aF227946274.0
aS'3,965'
p2829
aF62603879.0
aS'3,965'
p2830
aS'7/2'
p2831
aS'9/7'
p2832
aI2008
aa(lp2833
S'5'
p2834
aS'WALL-E'
p2835
aS'BV'
p2836
aF223808164.0
aS'3,992'
p2837
aF63087526.0
aS'3,992'
p2838
aS'6/27'
p2839
aS'1/8'
p2840
aI2008
aa(lp2841
S'6'
p2842
aS'Kung Fu Panda'
p2843
aS'P/DW'
p2844
aF215434591.0
aS'4,136'
p2845
aF60239130.0
aS'4,114'
p2846
aS'6/6'
p2847
aS'10/9'
p2848
aI2008
aa(lp2849
S'7'
p2850
aS'Sex and the City'
p2851
aS'WB (NL)'
p2852
aF152647258.0
aS'3,325'
p2853
aF57038404.0
aS'3,285'
p2854
aS'5/30'
p2855
aS'9/18'
p2856
aI2008
aa(lp2857
S'8'
p2858
aS'Mamma Mia!'
p2859
aS'Uni.'
p2860
aF144130063.0
aS'3,194'
p2861
aF27751240.0
aS'2,976'
p2862
aS'7/18'
p2863
aS'11/6'
p2864
aI2008
aa(lp2865
S'9'
p2866
aS'The Chronicles of Narnia: Prince Caspian'
p2867
aS'BV'
p2868
aF141621490.0
aS'3,929'
p2869
aF55034805.0
aS'3,929'
p2870
aS'5/16'
p2871
aS'9/4'
p2872
aI2008
aa(lp2873
S'10'
p2874
aS'The Incredible Hulk'
p2875
aS'Uni.'
p2876
aF134806913.0
aS'3,508'
p2877
aF55414050.0
aS'3,505'
p2878
aS'6/13'
p2879
aS'9/4'
p2880
aI2008
aa(lp2881
S'11'
p2882
aS'Wanted'
p2883
aS'Uni.'
p2884
aF134508551.0
aS'3,185'
p2885
aF50927085.0
aS'3,175'
p2886
aS'6/27'
p2887
aS'9/18'
p2888
aI2008
aa(lp2889
S'12'
p2890
aS'Get Smart'
p2891
aS'WB'
p2892
aF130319208.0
aS'3,915'
p2893
aF38683480.0
aS'3,911'
p2894
aS'6/20'
p2895
aS'11/6'
p2896
aI2008
aa(lp2897
S'13'
p2898
aS'Tropic Thunder'
p2899
aS'P/DW'
p2900
aF110515313.0
aS'3,473'
p2901
aF25812796.0
aS'3,319'
p2902
aS'8/13'
p2903
aS'11/13'
p2904
aI2008
aa(lp2905
S'14'
p2906
aS'The Mummy: Tomb of the Dragon Emperor'
p2907
aS'Uni.'
p2908
aF102491776.0
aS'3,778'
p2909
aF40457770.0
aS'3,760'
p2910
aS'8/1'
p2911
aS'9/25'
p2912
aI2008
aa(lp2913
S'15'
p2914
aS'Journey to the Center of the Earth'
p2915
aS'WB (NL)'
p2916
aF101704370.0
aS'2,830'
p2917
aF21018141.0
aS'2,811'
p2918
aS'7/11'
p2919
aS'12/11'
p2920
aI2008
aa(lp2921
S'16'
p2922
aS'Step Brothers'
p2923
aS'Sony'
p2924
aF100468793.0
aS'3,182'
p2925
aF30940732.0
aS'3,094'
p2926
aS'7/25'
p2927
aS'9/21'
p2928
aI2008
aa(lp2929
S'17'
p2930
aS"You Don't Mess with the Zohan"
p2931
aS'Sony'
p2932
aF100018837.0
aS'3,466'
p2933
aF38531374.0
aS'3,462'
p2934
aS'6/6'
p2935
aS'9/7'
p2936
aI2008
aa(lp2937
S'18'
p2938
aS'Pineapple Express'
p2939
aS'Sony'
p2940
aF87341380.0
aS'3,072'
p2941
aF23245025.0
aS'3,072'
p2942
aS'8/6'
p2943
aS'-'
p2944
aI2008
aa(lp2945
S'19'
p2946
aS'What Happens in Vegas'
p2947
aS'Fox'
p2948
aF80277646.0
aS'3,255'
p2949
aF20172474.0
aS'3,215'
p2950
aS'5/9'
p2951
aS'9/18'
p2952
aI2008
aa(lp2953
S'20'
p2954
aS'Hellboy II: The Golden Army'
p2955
aS'Uni.'
p2956
aF75986503.0
aS'3,212'
p2957
aF34539115.0
aS'3,204'
p2958
aS'7/11'
p2959
aS'9/18'
p2960
aI2008
aa(lp2961
S'21'
p2962
aS'The Happening'
p2963
aS'Fox'
p2964
aF64506874.0
aS'2,986'
p2965
aF30517109.0
aS'2,986'
p2966
aS'6/13'
p2967
aS'9/18'
p2968
aI2008
aa(lp2969
S'22'
p2970
aS'The Strangers'
p2971
aS'Rog.'
p2972
aF52597610.0
aS'2,477'
p2973
aF20997985.0
aS'2,466'
p2974
aS'5/30'
p2975
aS'7/24'
p2976
aI2008
aa(lp2977
S'23'
p2978
aS'The House Bunny'
p2979
aS'Sony'
p2980
aF48237389.0
aS'2,763'
p2981
aF14533702.0
aS'2,714'
p2982
aS'8/22'
p2983
aS'10/12'
p2984
aI2008
aa(lp2985
S'24'
p2986
aS'Made of Honor'
p2987
aS'Sony'
p2988
aF46012734.0
aS'2,816'
p2989
aF14756850.0
aS'2,729'
p2990
aS'5/2'
p2991
aS'6/29'
p2992
aI2008
aa(lp2993
S'25'
p2994
aS'The Sisterhood of the Traveling Pants 2'
p2995
aS'WB'
p2996
aF44089964.0
aS'2,714'
p2997
aF10678430.0
aS'2,707'
p2998
aS'8/6'
p2999
aS'11/13'
p3000
aI2008
aa(lp3001
S'26'
p3002
aS'Speed Racer'
p3003
aS'WB'
p3004
aF43945766.0
aS'3,606'
p3005
aF18561337.0
aS'3,606'
p3006
aS'5/9'
p3007
aS'8/7'
p3008
aI2008
aa(lp3009
S'27'
p3010
aS'Death Race'
p3011
aS'Uni.'
p3012
aF36316032.0
aS'2,586'
p3013
aF12621090.0
aS'2,532'
p3014
aS'8/22'
p3015
aS'10/16'
p3016
aI2008
aa(lp3017
S'28'
p3018
aS'Star Wars: The Clone Wars'
p3019
aS'WB'
p3020
aF35161554.0
aS'3,452'
p3021
aF14611273.0
aS'3,452'
p3022
aS'8/15'
p3023
aS'11/13'
p3024
aI2008
aa(lp3025
S'29'
p3026
aS'The Love Guru'
p3027
aS'Par.'
p3028
aF32235793.0
aS'3,012'
p3029
aF13907130.0
aS'3,012'
p3030
aS'6/20'
p3031
aS'8/28'
p3032
aI2008
aa(lp3033
S'30'
p3034
aS'Mirrors'
p3035
aS'Fox'
p3036
aF30691439.0
aS'2,664'
p3037
aF11161074.0
aS'2,664'
p3038
aS'8/15'
p3039
aS'11/23'
p3040
aI2008
aa(lp3041
S'31'
p3042
aS'Space Chimps'
p3043
aS'Fox'
p3044
aF30105968.0
aS'2,538'
p3045
aF7181374.0
aS'2,511'
p3046
aS'7/18'
p3047
aS'11/23'
p3048
aI2008
aa(lp3049
S'32'
p3050
aS'Traitor'
p3051
aS'Over.'
p3052
aF23530831.0
aS'2,108'
p3053
aF7868465.0
aS'2,054'
p3054
aS'8/27'
p3055
aS'11/25'
p3056
aI2008
aa(lp3057
S'33'
p3058
aS'Vicky Cristina Barcelona'
p3059
aS'MGM/W'
p3060
aF23216709.0
aS'726'
p3061
aF3755575.0
aS'692'
p3062
aS'8/15'
p3063
aS'2/19'
p3064
aI2008
aa(lp3065
S'34'
p3066
aS'Babylon A.D.'
p3067
aS'Fox'
p3068
aF22532572.0
aS'3,425'
p3069
aF9484627.0
aS'3,390'
p3070
aS'8/29'
p3071
aS'11/16'
p3072
aI2008
aa(lp3073
S'35'
p3074
aS'The X-Files: I Want to Believe'
p3075
aS'Fox'
p3076
aF20982478.0
aS'3,185'
p3077
aF10021753.0
aS'3,185'
p3078
aS'7/25'
p3079
aS'10/9'
p3080
aI2008
aa(lp3081
S'36'
p3082
aS'Kit Kittredge: An American Girl'
p3083
aS'PicH'
p3084
aF17657973.0
aS'1,849'
p3085
aF220297.0
aS'5'
p3086
aS'6/20'
p3087
aS'10/9'
p3088
aI2008
aa(lp3089
S'37'
p3090
aS'Swing Vote'
p3091
aS'BV'
p3092
aF16289867.0
aS'2,213'
p3093
aF6230669.0
aS'2,213'
p3094
aS'8/1'
p3095
aS'10/16'
p3096
aI2008
aa(lp3097
S'38'
p3098
aS'Disaster Movie'
p3099
aS'LGF'
p3100
aF14190901.0
aS'2,642'
p3101
aF5836973.0
aS'2,642'
p3102
aS'8/29'
p3103
aS'10/23'
p3104
aI2008
aa(lp3105
S'39'
p3106
aS'Fly Me to the Moon'
p3107
aS'Sum.'
p3108
aF13816982.0
aS'713'
p3109
aF1900523.0
aS'452'
p3110
aS'8/15'
p3111
aS'5/28'
p3112
aI2008
aa(lp3113
S'40'
p3114
aS'Meet Dave'
p3115
aS'Fox'
p3116
aF11803254.0
aS'3,011'
p3117
aF5251918.0
aS'3,011'
p3118
aS'7/11'
p3119
aS'10/9'
p3120
aI2008
aa(lp3121
S'41'
p3122
aS'The Longshots'
p3123
aS'MGM/W'
p3124
aF11537046.0
aS'2,089'
p3125
aF4080687.0
aS'2,089'
p3126
aS'8/22'
p3127
aS'11/25'
p3128
aI2008
aa(lp3129
S'42'
p3130
aS'Brideshead Revisited'
p3131
aS'Mira.'
p3132
aF6432256.0
aS'501'
p3133
aF339616.0
aS'33'
p3134
aS'7/25'
p3135
aS'9/25'
p3136
aI2008
aa(lp3137
S'43'
p3138
aS'The Rocker'
p3139
aS'Fox'
p3140
aF6409528.0
aS'2,784'
p3141
aF2636048.0
aS'2,784'
p3142
aS'8/20'
p3143
aS'10/16'
p3144
aI2008
aa(lp3145
S'44'
p3146
aS'Tell No One'
p3147
aS'MBox'
p3148
aF6177192.0
aS'112'
p3149
aF169707.0
aS'8'
p3150
aS'7/2'
p3151
aS'2/8'
p3152
aI2008
aa(lp3153
S'45'
p3154
aS'Mongol'
p3155
aS'PicH'
p3156
aF5705761.0
aS'253'
p3157
aF135326.0
aS'5'
p3158
aS'6/6'
p3159
aS'9/11'
p3160
aI2008
aa(lp3161
S'46'
p3162
aS'Hamlet 2'
p3163
aS'Focus'
p3164
aF4886216.0
aS'1,597'
p3165
aF439925.0
aS'103'
p3166
aS'8/22'
p3167
aS'10/2'
p3168
aI2008
aa(lp3169
S'47'
p3170
aS'College'
p3171
aS'MGM'
p3172
aF4694636.0
aS'2,124'
p3173
aF2153109.0
aS'2,123'
p3174
aS'8/29'
p3175
aS'11/13'
p3176
aI2008
aa(lp3177
S'48'
p3178
aS'Bottle Shock'
p3179
aS'Free'
p3180
aF4078607.0
aS'401'
p3181
aF278075.0
aS'48'
p3182
aS'8/6'
p3183
aS'12/11'
p3184
aI2008
aa(lp3185
S'49'
p3186
aS'Elegy'
p3187
aS'Gold.'
p3188
aF3581642.0
aS'142'
p3189
aF104168.0
aS'6'
p3190
aS'8/8'
p3191
aS'11/13'
p3192
aI2008
aa(lp3193
S'50'
p3194
aS'Man on Wire'
p3195
aS'Magn.'
p3196
aF2962242.0
aS'93'
p3197
aF51392.0
aS'2'
p3198
aS'7/25'
p3199
aS'3/5'
p3200
aI2008
aa(lp3201
S'1'
p3202
aS'Spider-Man 3'
p3203
aS'Sony'
p3204
aF336530303.0
aS'4,324'
p3205
aF151116516.0
aS'4,252'
p3206
aS'5/4'
p3207
aS'8/19'
p3208
aI2007
aa(lp3209
S'2'
p3210
aS'Shrek the Third'
p3211
aS'P/DW'
p3212
aF322719944.0
aS'4,172'
p3213
aF121629270.0
aS'4,122'
p3214
aS'5/18'
p3215
aS'8/9'
p3216
aI2007
aa(lp3217
S'3'
p3218
aS'Transformers'
p3219
aS'P/DW'
p3220
aF319246193.0
aS'4,050'
p3221
aF70502384.0
aS'4,011'
p3222
aS'7/3'
p3223
aS'11/8'
p3224
aI2007
aa(lp3225
S'4'
p3226
aS"Pirates of the Caribbean: At World's End"
p3227
aS'BV'
p3228
aF309420425.0
aS'4,362'
p3229
aF114732820.0
aS'4,362'
p3230
aS'5/25'
p3231
aS'10/4'
p3232
aI2007
aa(lp3233
S'5'
p3234
aS'Harry Potter and the Order of the Phoenix'
p3235
aS'WB'
p3236
aF292004738.0
aS'4,285'
p3237
aF77108414.0
aS'4,285'
p3238
aS'7/11'
p3239
aS'12/13'
p3240
aI2007
aa(lp3241
S'6'
p3242
aS'The Bourne Ultimatum'
p3243
aS'Uni.'
p3244
aF227471070.0
aS'3,701'
p3245
aF69283690.0
aS'3,660'
p3246
aS'8/3'
p3247
aS'11/29'
p3248
aI2007
aa(lp3249
S'7'
p3250
aS'Ratatouille'
p3251
aS'BV'
p3252
aF206445654.0
aS'3,940'
p3253
aF47027395.0
aS'3,940'
p3254
aS'6/29'
p3255
aS'12/13'
p3256
aI2007
aa(lp3257
S'8'
p3258
aS'The Simpsons Movie'
p3259
aS'Fox'
p3260
aF183135014.0
aS'3,926'
p3261
aF74036787.0
aS'3,922'
p3262
aS'7/27'
p3263
aS'12/20'
p3264
aI2007
aa(lp3265
S'9'
p3266
aS'Knocked Up'
p3267
aS'Uni.'
p3268
aF148768917.0
aS'2,975'
p3269
aF30690990.0
aS'2,871'
p3270
aS'6/1'
p3271
aS'-'
p3272
aI2007
aa(lp3273
S'10'
p3274
aS'Rush Hour 3'
p3275
aS'NL'
p3276
aF140125968.0
aS'3,778'
p3277
aF49100158.0
aS'3,778'
p3278
aS'8/10'
p3279
aS'11/15'
p3280
aI2007
aa(lp3281
S'11'
p3282
aS'Live Free or Die Hard'
p3283
aS'Fox'
p3284
aF134529403.0
aS'3,411'
p3285
aF33369559.0
aS'3,408'
p3286
aS'6/27'
p3287
aS'11/8'
p3288
aI2007
aa(lp3289
S'12'
p3290
aS'Fantastic Four: Rise of the Silver Surfer'
p3291
aS'Fox'
p3292
aF131921738.0
aS'3,963'
p3293
aF58051684.0
aS'3,959'
p3294
aS'6/15'
p3295
aS'10/18'
p3296
aI2007
aa(lp3297
S'13'
p3298
aS'Superbad'
p3299
aS'Sony'
p3300
aF121463226.0
aS'3,069'
p3301
aF33052411.0
aS'2,948'
p3302
aS'8/17'
p3303
aS'10/21'
p3304
aI2007
aa(lp3305
S'14'
p3306
aS'I Now Pronounce You Chuck and Larry'
p3307
aS'Uni.'
p3308
aF120059556.0
aS'3,501'
p3309
aF34233750.0
aS'3,495'
p3310
aS'7/20'
p3311
aS'10/18'
p3312
aI2007
aa(lp3313
S'15'
p3314
aS'Hairspray (2007)'
p3315
aS'NL'
p3316
aF118871849.0
aS'3,121'
p3317
aF27476745.0
aS'3,121'
p3318
aS'7/20'
p3319
aS'10/25'
p3320
aI2007
aa(lp3321
S'16'
p3322
aS"Ocean's Thirteen"
p3323
aS'WB'
p3324
aF117154724.0
aS'3,565'
p3325
aF36133403.0
aS'3,565'
p3326
aS'6/8'
p3327
aS'9/20'
p3328
aI2007
aa(lp3329
S'17'
p3330
aS'Evan Almighty'
p3331
aS'Uni.'
p3332
aF100462298.0
aS'3,636'
p3333
aF31192615.0
aS'3,604'
p3334
aS'6/22'
p3335
aS'-'
p3336
aI2007
aa(lp3337
S'18'
p3338
aS'1408'
p3339
aS'MGM/W'
p3340
aF71985628.0
aS'2,733'
p3341
aF20617667.0
aS'2,678'
p3342
aS'6/22'
p3343
aS'10/11'
p3344
aI2007
aa(lp3345
S'19'
p3346
aS"Surf's Up"
p3347
aS'Sony'
p3348
aF58867694.0
aS'3,531'
p3349
aF17640249.0
aS'3,528'
p3350
aS'6/8'
p3351
aS'8/26'
p3352
aI2007
aa(lp3353
S'20'
p3354
aS'Halloween (2007)'
p3355
aS'MGM/W'
p3356
aF58272029.0
aS'3,475'
p3357
aF26362367.0
aS'3,472'
p3358
aS'8/31'
p3359
aS'12/13'
p3360
aI2007
aa(lp3361
S'21'
p3362
aS'License to Wed'
p3363
aS'WB'
p3364
aF43799818.0
aS'2,715'
p3365
aF10422258.0
aS'2,604'
p3366
aS'7/3'
p3367
aS'10/4'
p3368
aI2007
aa(lp3369
S'22'
p3370
aS'Underdog'
p3371
aS'BV'
p3372
aF43760605.0
aS'3,013'
p3373
aF11585121.0
aS'3,013'
p3374
aS'8/3'
p3375
aS'12/13'
p3376
aI2007
aa(lp3377
S'23'
p3378
aS'No Reservations'
p3379
aS'WB'
p3380
aF43107979.0
aS'2,425'
p3381
aF11704357.0
aS'2,425'
p3382
aS'7/27'
p3383
aS'11/15'
p3384
aI2007
aa(lp3385
S'24'
p3386
aS'Stardust'
p3387
aS'Par.'
p3388
aF38634938.0
aS'2,565'
p3389
aF9169779.0
aS'2,540'
p3390
aS'8/10'
p3391
aS'10/25'
p3392
aI2007
aa(lp3393
S'25'
p3394
aS"Mr. Bean's Holiday"
p3395
aS'Uni.'
p3396
aF33302167.0
aS'1,778'
p3397
aF9889780.0
aS'1,714'
p3398
aS'8/24'
p3399
aS'10/18'
p3400
aI2007
aa(lp3401
S'26'
p3402
aS'Balls of Fury'
p3403
aS'Rog.'
p3404
aF32886940.0
aS'3,081'
p3405
aF11352123.0
aS'3,052'
p3406
aS'8/29'
p3407
aS'11/15'
p3408
aI2007
aa(lp3409
S'27'
p3410
aS'28 Weeks Later'
p3411
aS'FoxA'
p3412
aF28638916.0
aS'2,305'
p3413
aF9807292.0
aS'2,303'
p3414
aS'5/11'
p3415
aS'8/16'
p3416
aI2007
aa(lp3417
S'28'
p3418
aS'Mr. Brooks'
p3419
aS'MGM'
p3420
aF28549298.0
aS'2,453'
p3421
aF10017067.0
aS'2,453'
p3422
aS'6/1'
p3423
aS'-'
p3424
aI2007
aa(lp3425
S'29'
p3426
aS'The Nanny Diaries'
p3427
aS'MGM/W'
p3428
aF25930652.0
aS'2,636'
p3429
aF7480927.0
aS'2,629'
p3430
aS'8/24'
p3431
aS'11/29'
p3432
aI2007
aa(lp3433
S'30'
p3434
aS'Nancy Drew'
p3435
aS'WB'
p3436
aF25612520.0
aS'2,612'
p3437
aF6832318.0
aS'2,612'
p3438
aS'6/15'
p3439
aS'8/30'
p3440
aI2007
aa(lp3441
S'31'
p3442
aS'Sicko'
p3443
aS'LGF'
p3444
aF24540079.0
aS'1,117'
p3445
aF68969.0
aS'1'
p3446
aS'6/22'
p3447
aS'10/18'
p3448
aI2007
aa(lp3449
S'32'
p3450
aS'WAR'
p3451
aS'LGF'
p3452
aF22486409.0
aS'2,277'
p3453
aF9820089.0
aS'2,277'
p3454
aS'8/24'
p3455
aS'10/4'
p3456
aI2007
aa(lp3457
S'33'
p3458
aS'Georgia Rule'
p3459
aS'Uni.'
p3460
aF19103072.0
aS'2,531'
p3461
aF6773870.0
aS'2,523'
p3462
aS'5/11'
p3463
aS'6/28'
p3464
aI2007
aa(lp3465
S'34'
p3466
aS'Becoming Jane'
p3467
aS'Mira.'
p3468
aF18670946.0
aS'1,210'
p3469
aF972066.0
aS'100'
p3470
aS'8/3'
p3471
aS'10/25'
p3472
aI2007
aa(lp3473
S'35'
p3474
aS'Hostel Part II'
p3475
aS'LGF'
p3476
aF17609452.0
aS'2,350'
p3477
aF8203391.0
aS'2,350'
p3478
aS'6/8'
p3479
aS'7/5'
p3480
aI2007
aa(lp3481
S'36'
p3482
aS'The Invasion'
p3483
aS'WB'
p3484
aF15074191.0
aS'2,776'
p3485
aF5951409.0
aS'2,776'
p3486
aS'8/17'
p3487
aS'10/11'
p3488
aI2007
aa(lp3489
S'37'
p3490
aS'Hot Rod'
p3491
aS'Par.'
p3492
aF13938332.0
aS'2,607'
p3493
aF5310711.0
aS'2,607'
p3494
aS'8/3'
p3495
aS'9/27'
p3496
aI2007
aa(lp3497
S'38'
p3498
aS'Daddy Day Camp'
p3499
aS'SonR'
p3500
aF13235267.0
aS'2,332'
p3501
aF3402678.0
aS'2,332'
p3502
aS'8/8'
p3503
aS'10/14'
p3504
aI2007
aa(lp3505
S'39'
p3506
aS'Evening'
p3507
aS'Focus'
p3508
aF12492481.0
aS'979'
p3509
aF3501971.0
aS'977'
p3510
aS'6/29'
p3511
aS'8/2'
p3512
aI2007
aa(lp3513
S'40'
p3514
aS'La Vie en Rose'
p3515
aS'PicH'
p3516
aF10301706.0
aS'178'
p3517
aF179848.0
aS'8'
p3518
aS'6/8'
p3519
aS'4/10'
p3520
aI2007
aa(lp3521
S'41'
p3522
aS'BRATZ'
p3523
aS'LGF'
p3524
aF10010209.0
aS'1,509'
p3525
aF4208455.0
aS'1,509'
p3526
aS'8/3'
p3527
aS'11/1'
p3528
aI2007
aa(lp3529
S'42'
p3530
aS'Death Sentence'
p3531
aS'Fox'
p3532
aF9534258.0
aS'1,823'
p3533
aF4231321.0
aS'1,822'
p3534
aS'8/31'
p3535
aS'11/1'
p3536
aI2007
aa(lp3537
S'43'
p3538
aS'Once'
p3539
aS'FoxS'
p3540
aF9439923.0
aS'150'
p3541
aF61901.0
aS'2'
p3542
aS'5/16'
p3543
aS'12/20'
p3544
aI2007
aa(lp3545
S'44'
p3546
aS'A Mighty Heart'
p3547
aS'ParV'
p3548
aF9176787.0
aS'1,355'
p3549
aF3948863.0
aS'1,355'
p3550
aS'6/22'
p3551
aS'8/23'
p3552
aI2007
aa(lp3553
S'45'
p3554
aS'Death at a Funeral (2007)'
p3555
aS'MGM'
p3556
aF8580428.0
aS'324'
p3557
aF1282973.0
aS'260'
p3558
aS'8/17'
p3559
aS'1/3'
p3560
aI2007
aa(lp3561
S'46'
p3562
aS'Delta Farce'
p3563
aS'LGF'
p3564
aF8130530.0
aS'1,931'
p3565
aF3420645.0
aS'1,931'
p3566
aS'5/11'
p3567
aS'6/14'
p3568
aI2007
aa(lp3569
S'47'
p3570
aS'El Cantante'
p3571
aS'PicH'
p3572
aF7556712.0
aS'542'
p3573
aF3202035.0
aS'542'
p3574
aS'8/3'
p3575
aS'10/4'
p3576
aI2007
aa(lp3577
S'48'
p3578
aS'I Know Who Killed Me'
p3579
aS'Sony'
p3580
aF7498716.0
aS'1,320'
p3581
aF3506291.0
aS'1,320'
p3582
aS'7/27'
p3583
aS'-'
p3584
aI2007
aa(lp3585
S'49'
p3586
aS'Bug'
p3587
aS'LGF'
p3588
aF7025810.0
aS'1,661'
p3589
aF3245556.0
aS'1,661'
p3590
aS'5/25'
p3591
aS'6/21'
p3592
aI2007
aa(lp3593
S'50'
p3594
aS'The Last Legion'
p3595
aS'Wein.'
p3596
aF5933494.0
aS'2,002'
p3597
aF2746312.0
aS'2,002'
p3598
aS'8/17'
p3599
aS'11/1'
p3600
aI2007
aa(lp3601
S'1'
p3602
aS"Pirates of the Caribbean: Dead Man's Chest"
p3603
aS'BV'
p3604
aF423315812.0
aS'4,133'
p3605
aF135634554.0
aS'4,133'
p3606
aS'7/7'
p3607
aS'12/7'
p3608
aI2006
aa(lp3609
S'2'
p3610
aS'Cars'
p3611
aS'BV'
p3612
aF244082982.0
aS'3,988'
p3613
aF60119509.0
aS'3,985'
p3614
aS'6/9'
p3615
aS'10/19'
p3616
aI2006
aa(lp3617
S'3'
p3618
aS'X-Men: The Last Stand'
p3619
aS'Fox'
p3620
aF234362462.0
aS'3,714'
p3621
aF102750665.0
aS'3,690'
p3622
aS'5/26'
p3623
aS'9/28'
p3624
aI2006
aa(lp3625
S'4'
p3626
aS'The Da Vinci Code'
p3627
aS'Sony'
p3628
aF217536138.0
aS'3,757'
p3629
aF77073388.0
aS'3,735'
p3630
aS'5/19'
p3631
aS'8/20'
p3632
aI2006
aa(lp3633
S'5'
p3634
aS'Superman Returns'
p3635
aS'WB'
p3636
aF200081192.0
aS'4,065'
p3637
aF52535096.0
aS'4,065'
p3638
aS'6/28'
p3639
aS'11/2'
p3640
aI2006
aa(lp3641
S'6'
p3642
aS'Over the Hedge'
p3643
aS'P/DW'
p3644
aF155019340.0
aS'4,093'
p3645
aF38457003.0
aS'4,059'
p3646
aS'5/19'
p3647
aS'9/4'
p3648
aI2006
aa(lp3649
S'7'
p3650
aS'Talladega Nights: The Ballad of Ricky Bobby'
p3651
aS'Sony'
p3652
aF148213377.0
aS'3,807'
p3653
aF47042215.0
aS'3,803'
p3654
aS'8/4'
p3655
aS'10/15'
p3656
aI2006
aa(lp3657
S'8'
p3658
aS'Click'
p3659
aS'SonR'
p3660
aF137355633.0
aS'3,764'
p3661
aF40011365.0
aS'3,749'
p3662
aS'6/23'
p3663
aS'9/24'
p3664
aI2006
aa(lp3665
S'9'
p3666
aS'Mission: Impossible III'
p3667
aS'Par.'
p3668
aF134029801.0
aS'4,059'
p3669
aF47743273.0
aS'4,054'
p3670
aS'5/5'
p3671
aS'7/20'
p3672
aI2006
aa(lp3673
S'10'
p3674
aS'The Devil Wears Prada'
p3675
aS'Fox'
p3676
aF124740460.0
aS'2,882'
p3677
aF27537244.0
aS'2,847'
p3678
aS'6/30'
p3679
aS'12/14'
p3680
aI2006
aa(lp3681
S'11'
p3682
aS'The Break-Up'
p3683
aS'Uni.'
p3684
aF118703275.0
aS'3,146'
p3685
aF39172785.0
aS'3,070'
p3686
aS'6/2'
p3687
aS'9/7'
p3688
aI2006
aa(lp3689
S'12'
p3690
aS'Nacho Libre'
p3691
aS'Par.'
p3692
aF80197993.0
aS'3,083'
p3693
aF28309599.0
aS'3,070'
p3694
aS'6/16'
p3695
aS'9/4'
p3696
aI2006
aa(lp3697
S'13'
p3698
aS'You, Me and Dupree'
p3699
aS'Uni.'
p3700
aF75628110.0
aS'3,137'
p3701
aF21525560.0
aS'3,131'
p3702
aS'7/14'
p3703
aS'10/5'
p3704
aI2006
aa(lp3705
S'14'
p3706
aS'Monster House'
p3707
aS'Sony'
p3708
aF73661010.0
aS'3,553'
p3709
aF22217226.0
aS'3,553'
p3710
aS'7/21'
p3711
aS'10/22'
p3712
aI2006
aa(lp3713
S'15'
p3714
aS'Barnyard: The Original Party Animals'
p3715
aS'Par.'
p3716
aF72637803.0
aS'3,311'
p3717
aF15820864.0
aS'3,311'
p3718
aS'8/4'
p3719
aS'11/2'
p3720
aI2006
aa(lp3721
S'16'
p3722
aS'World Trade Center'
p3723
aS'Par.'
p3724
aF70278893.0
aS'3,021'
p3725
aF18730762.0
aS'2,957'
p3726
aS'8/9'
p3727
aS'10/19'
p3728
aI2006
aa(lp3729
S'17'
p3730
aS'Step Up'
p3731
aS'BV'
p3732
aF65328121.0
aS'2,647'
p3733
aF20659573.0
aS'2,467'
p3734
aS'8/11'
p3735
aS'10/19'
p3736
aI2006
aa(lp3737
S'18'
p3738
aS'Miami Vice'
p3739
aS'Uni.'
p3740
aF63450470.0
aS'3,026'
p3741
aF25723815.0
aS'3,021'
p3742
aS'7/28'
p3743
aS'10/5'
p3744
aI2006
aa(lp3745
S'19'
p3746
aS'The Fast and the Furious: Tokyo Drift'
p3747
aS'Uni.'
p3748
aF62514415.0
aS'3,030'
p3749
aF23973840.0
aS'3,027'
p3750
aS'6/16'
p3751
aS'9/7'
p3752
aI2006
aa(lp3753
S'20'
p3754
aS'Poseidon'
p3755
aS'WB'
p3756
aF60674817.0
aS'3,555'
p3757
aF22155410.0
aS'3,555'
p3758
aS'5/12'
p3759
aS'8/10'
p3760
aI2006
aa(lp3761
S'21'
p3762
aS'Little Miss Sunshine'
p3763
aS'FoxS'
p3764
aF59891098.0
aS'1,602'
p3765
aF370998.0
aS'7'
p3766
aS'7/26'
p3767
aS'3/29'
p3768
aI2006
aa(lp3769
S'22'
p3770
aS'Little Man'
p3771
aS'SonR'
p3772
aF58645052.0
aS'2,537'
p3773
aF21613176.0
aS'2,533'
p3774
aS'7/14'
p3775
aS'8/27'
p3776
aI2006
aa(lp3777
S'23'
p3778
aS'Invincible'
p3779
aS'BV'
p3780
aF57806952.0
aS'2,987'
p3781
aF17031122.0
aS'2,917'
p3782
aS'8/25'
p3783
aS'11/16'
p3784
aI2006
aa(lp3785
S'24'
p3786
aS'The Omen (2006)'
p3787
aS'Fox'
p3788
aF54607383.0
aS'2,723'
p3789
aF16026496.0
aS'2,723'
p3790
aS'6/6'
p3791
aS'8/31'
p3792
aI2006
aa(lp3793
S'25'
p3794
aS'The Lake House'
p3795
aS'WB'
p3796
aF52330111.0
aS'2,645'
p3797
aF13616196.0
aS'2,645'
p3798
aS'6/16'
p3799
aS'9/21'
p3800
aI2006
aa(lp3801
S'26'
p3802
aS'Lady in the Water'
p3803
aS'WB'
p3804
aF42285169.0
aS'3,235'
p3805
aF18044396.0
aS'3,235'
p3806
aS'7/21'
p3807
aS'9/28'
p3808
aI2006
aa(lp3809
S'27'
p3810
aS'John Tucker Must Die'
p3811
aS'Fox'
p3812
aF41011711.0
aS'2,566'
p3813
aF14276534.0
aS'2,560'
p3814
aS'7/28'
p3815
aS'11/2'
p3816
aI2006
aa(lp3817
S'28'
p3818
aS'The Illusionist'
p3819
aS'YFG'
p3820
aF39868642.0
aS'1,438'
p3821
aF927956.0
aS'51'
p3822
aS'8/18'
p3823
aS'2/15'
p3824
aI2006
aa(lp3825
S'29'
p3826
aS'Accepted'
p3827
aS'Uni.'
p3828
aF36323505.0
aS'2,917'
p3829
aF10023835.0
aS'2,914'
p3830
aS'8/18'
p3831
aS'10/19'
p3832
aI2006
aa(lp3833
S'30'
p3834
aS'Snakes on a Plane'
p3835
aS'NL'
p3836
aF34020814.0
aS'3,555'
p3837
aF13806311.0
aS'3,555'
p3838
aS'8/18'
p3839
aS'11/9'
p3840
aI2006
aa(lp3841
S'31'
p3842
aS'Garfield: A Tail of Two Kitties'
p3843
aS'Fox'
p3844
aF28426747.0
aS'2,981'
p3845
aF7288977.0
aS'2,946'
p3846
aS'6/16'
p3847
aS'9/28'
p3848
aI2006
aa(lp3849
S'32'
p3850
aS'The Ant Bully'
p3851
aS'WB'
p3852
aF28142535.0
aS'3,050'
p3853
aF8432465.0
aS'3,050'
p3854
aS'7/28'
p3855
aS'11/16'
p3856
aI2006
aa(lp3857
S'33'
p3858
aS'Crank'
p3859
aS'LGF'
p3860
aF27838408.0
aS'2,515'
p3861
aF10457367.0
aS'2,515'
p3862
aS'9/1'
p3863
aS'10/19'
p3864
aI2006
aa(lp3865
S'34'
p3866
aS'The Descent'
p3867
aS'LGF'
p3868
aF26024456.0
aS'2,095'
p3869
aF8911330.0
aS'2,095'
p3870
aS'8/4'
p3871
aS'10/12'
p3872
aI2006
aa(lp3873
S'35'
p3874
aS'Clerks II'
p3875
aS'MGM/W'
p3876
aF24148068.0
aS'2,150'
p3877
aF10061132.0
aS'2,150'
p3878
aS'7/21'
p3879
aS'9/28'
p3880
aI2006
aa(lp3881
S'36'
p3882
aS'An Inconvenient Truth'
p3883
aS'ParC'
p3884
aF24146161.0
aS'587'
p3885
aF281330.0
aS'4'
p3886
aS'5/24'
p3887
aS'11/2'
p3888
aI2006
aa(lp3889
S'37'
p3890
aS'The Wicker Man'
p3891
aS'WB'
p3892
aF23649127.0
aS'2,784'
p3893
aF9610204.0
aS'2,784'
p3894
aS'9/1'
p3895
aS'11/16'
p3896
aI2006
aa(lp3897
S'38'
p3898
aS'My Super Ex-Girlfriend'
p3899
aS'Fox'
p3900
aF22530295.0
aS'2,702'
p3901
aF8603460.0
aS'2,702'
p3902
aS'7/21'
p3903
aS'10/12'
p3904
aI2006
aa(lp3905
S'39'
p3906
aS'Waist Deep'
p3907
aS'Rog.'
p3908
aF21344312.0
aS'1,006'
p3909
aF9404180.0
aS'1,004'
p3910
aS'6/23'
p3911
aS'8/3'
p3912
aI2006
aa(lp3913
S'40'
p3914
aS'A Prairie Home Companion'
p3915
aS'PicH'
p3916
aF20342852.0
aS'767'
p3917
aF4566293.0
aS'760'
p3918
aS'6/9'
p3919
aS'10/12'
p3920
aI2006
aa(lp3921
S'41'
p3922
aS'Pulse'
p3923
aS'W/Dim.'
p3924
aF20264436.0
aS'2,323'
p3925
aF8203822.0
aS'2,323'
p3926
aS'8/11'
p3927
aS'10/12'
p3928
aI2006
aa(lp3929
S'42'
p3930
aS'Beerfest'
p3931
aS'WB'
p3932
aF19185184.0
aS'2,964'
p3933
aF7031228.0
aS'2,964'
p3934
aS'8/25'
p3935
aS'11/2'
p3936
aI2006
aa(lp3937
S'43'
p3938
aS'Just My Luck'
p3939
aS'Fox'
p3940
aF17326650.0
aS'2,543'
p3941
aF5692285.0
aS'2,541'
p3942
aS'5/12'
p3943
aS'8/3'
p3944
aI2006
aa(lp3945
S'44'
p3946
aS'An American Haunting'
p3947
aS'Free'
p3948
aF16298046.0
aS'1,703'
p3949
aF5783508.0
aS'1,675'
p3950
aS'5/5'
p3951
aS'7/23'
p3952
aI2006
aa(lp3953
S'45'
p3954
aS'See No Evil'
p3955
aS'LGF'
p3956
aF15032800.0
aS'1,270'
p3957
aF4581233.0
aS'1,257'
p3958
aS'5/19'
p3959
aS'7/6'
p3960
aI2006
aa(lp3961
S'46'
p3962
aS'How to Eat Fried Worms'
p3963
aS'NL'
p3964
aF13040527.0
aS'1,870'
p3965
aF4003537.0
aS'1,870'
p3966
aS'8/25'
p3967
aS'10/12'
p3968
aI2006
aa(lp3969
S'47'
p3970
aS'Bon Cop, Bad Cop'
p3971
aS'All.'
p3972
aF12665721.0
aS'260'
p3973
aF1433259.0
aS'133'
p3974
aS'8/4'
p3975
aS'12/17'
p3976
aI2006
aa(lp3977
S'48'
p3978
aS'Idlewild'
p3979
aS'Uni.'
p3980
aF12571185.0
aS'975'
p3981
aF5745780.0
aS'973'
p3982
aS'8/25'
p3983
aS'10/5'
p3984
aI2006
aa(lp3985
S'49'
p3986
aS'Zoom'
p3987
aS'SonR'
p3988
aF11989328.0
aS'2,501'
p3989
aF4510408.0
aS'2,501'
p3990
aS'8/11'
p3991
aS'9/17'
p3992
aI2006
aa(lp3993
S'50'
p3994
aS'Material Girls'
p3995
aS'MGM'
p3996
aF11449638.0
aS'1,509'
p3997
aF4603121.0
aS'1,509'
p3998
aS'8/18'
p3999
aS'10/26'
p4000
aI2006
aa.